Product: MDK-ARM Standard 5.10
Component: ARM Compiler 5.04 update 1 (build 49)
Tool: armlink [5040049]

==============================================================================

Section Cross References

    main.o(.text) refers to misc.o(.text) for NVIC_SetVectorTable
    main.o(.text) refers to bsp_md5.o(.text) for MD5_Test
    main.o(.text) refers to bsp_gpio.o(.text) for bsp_BTPWRInit
    main.o(.text) refers to bsp_delay.o(.text) for ForDelay_nms
    main.o(.text) refers to stm32f4xx_gpio.o(.text) for GPIO_ResetBits
    main.o(.text) refers to bsp_filesystem.o(.text) for bsp_ChangeAPPtoRun
    main.o(.text) refers to bsp_usart.o(.text) for USART2_Init
    main.o(.text) refers to bsp_adc.o(.text) for bsp_AdcInit
    main.o(.text) refers to bsp_rtc.o(.text) for RTC_Config
    main.o(.text) refers to queue.o(.text) for xQueueGenericCreate
    main.o(.text) refers to tasks.o(.text) for xTaskGenericCreate
    main.o(.text) refers to main.o(.data) for res
    main.o(.text) refers to system_stm32f4xx.o(.data) for SystemCoreClock
    main.o(.text) refers to task_hardwarecontrol.o(.text) for BSP_Task
    main.o(.text) refers to task_communicate_protocol.o(.text) for USART_L0_RXTask
    stm32f4xx_it.o(.text) refers to usb_dcd_int.o(.text) for USBD_OTG_ISR_Handler
    stm32f4xx_it.o(.text) refers to usb_bsp.o(.bss) for USB_OTG_Core
    task_communicate_protocol.o(.text) refers to tasks.o(.text) for xTaskGetTickCount
    task_communicate_protocol.o(.text) refers to rand.o(.text) for srand
    task_communicate_protocol.o(.text) refers to queue.o(.text) for xQueueGenericSend
    task_communicate_protocol.o(.text) refers to stm32f4xx_usart.o(.text) for USART_ITConfig
    task_communicate_protocol.o(.text) refers to bsp_delay.o(.text) for ForDelay_nms
    task_communicate_protocol.o(.text) refers to memcpya.o(.text) for __aeabi_memcpy
    task_communicate_protocol.o(.text) refers to task_hardwarecontrol.o(.text) for BT_Reset
    task_communicate_protocol.o(.text) refers to crypto.o(i.Crypto_DeInit) for Crypto_DeInit
    task_communicate_protocol.o(.text) refers to bsp_aesecb256.o(.text) for STM32_AES_ECB_Decrypt
    task_communicate_protocol.o(.text) refers to task_communicate_protocol.o(.constdata) for chCRCHTable
    task_communicate_protocol.o(.text) refers to task_communicate_protocol.o(.data) for L1_RxHeader
    task_communicate_protocol.o(.text) refers to main.o(.data) for L0_TxQue
    task_communicate_protocol.o(.text) refers to task_hardwarecontrol.o(.data) for SleepTime
    task_communicate_protocol.o(.text) refers to task_communicate_protocol.o(.bss) for L2_TxKeys
    task_communicate_protocol.o(.text) refers to bsp_aesecb256.o(.data) for Key
    task_communicate_protocol.o(.text) refers to bsp_filesystem.o(.data) for char_ManuName
    task_communicate_protocol.o(.text) refers to bsp_gpio.o(.text) for Ble_Discon
    task_communicate_protocol.o(.text) refers to bsp_filesystem.o(.text) for bsp_SysinfoSave
    task_communicate_protocol.o(.text) refers to bsp_adc.o(.data) for Battery_Level
    task_communicate_protocol.o(.text) refers to bsp_md5.o(.text) for STM32_MD5_HASH_DigestCompute
    task_communicate_protocol.o(.text) refers to bsp_usart.o(.data) for STX_Received
    task_communicate_protocol.o(.data) refers to task_communicate_protocol.o(.bss) for L1_RxBuffer
    system_stm32f4xx.o(.text) refers to system_stm32f4xx.o(.data) for SystemCoreClock
    task_hardwarecontrol.o(.text) refers to bsp_gpio.o(.text) for Ble_Discon
    task_hardwarecontrol.o(.text) refers to bsp_delay.o(.text) for ForDelay_nms
    task_hardwarecontrol.o(.text) refers to bsp_usart.o(.text) for USART2_Init
    task_hardwarecontrol.o(.text) refers to stm32f4xx_rcc.o(.text) for RCC_AHB2PeriphResetCmd
    task_hardwarecontrol.o(.text) refers to stm32f4xx_gpio.o(.text) for GPIO_Init
    task_hardwarecontrol.o(.text) refers to stm32f4xx_usart.o(.text) for USART_Cmd
    task_hardwarecontrol.o(.text) refers to stm32f4xx_adc.o(.text) for ADC_Cmd
    task_hardwarecontrol.o(.text) refers to stm32f4xx_sdio.o(.text) for SDIO_DeInit
    task_hardwarecontrol.o(.text) refers to bsp_sdio.o(.text) for SDIO_Register_Deinit
    task_hardwarecontrol.o(.text) refers to stm32f4xx_tim.o(.text) for TIM_Cmd
    task_hardwarecontrol.o(.text) refers to stm32f4xx_dma.o(.text) for DMA_Cmd
    task_hardwarecontrol.o(.text) refers to stm32f4xx_syscfg.o(.text) for SYSCFG_EXTILineConfig
    task_hardwarecontrol.o(.text) refers to stm32f4xx_exti.o(.text) for EXTI_Init
    task_hardwarecontrol.o(.text) refers to misc.o(.text) for NVIC_Init
    task_hardwarecontrol.o(.text) refers to usbd_core.o(.text) for USBD_DeInit
    task_hardwarecontrol.o(.text) refers to stm32f4xx_pwr.o(.text) for PWR_EnterSTOPMode
    task_hardwarecontrol.o(.text) refers to system_stm32f4xx.o(.text) for SetSysClock
    task_hardwarecontrol.o(.text) refers to bsp_adc.o(.text) for bsp_AdcInit
    task_hardwarecontrol.o(.text) refers to bsp_usart.o(.data) for BT_IsReady
    task_hardwarecontrol.o(.text) refers to task_hardwarecontrol.o(.data) for BT_Machine
    task_hardwarecontrol.o(.text) refers to usb_bsp.o(.bss) for USB_OTG_Core
    task_hardwarecontrol.o(.text) refers to usbd_usr.o(.data) for USRD_cb
    task_hardwarecontrol.o(.text) refers to usbd_msc_core.o(.data) for USBD_MSC_cb
    task_hardwarecontrol.o(.text) refers to usbd_desc.o(.data) for USR_desc
    task_hardwarecontrol.o(.text) refers to usb_bsp.o(.data) for USB_MS
    task_hardwarecontrol.o(.text) refers to system_stm32f4xx.o(.data) for SystemCoreClock
    task_hardwarecontrol.o(.text) refers to bsp_gpio.o(.bss) for Button
    task_hardwarecontrol.o(.text) refers to tasks.o(.text) for xTaskGetTickCount
    task_hardwarecontrol.o(.text) refers to ff.o(.text) for f_open
    task_hardwarecontrol.o(.text) refers to printf2.o(i.__0printf$2) for __2printf
    task_hardwarecontrol.o(.text) refers to task_hardwarecontrol.o(.bss) for file_blue
    task_hardwarecontrol.o(.text) refers to bsp_filesystem.o(.text) for bsp_ChangeAPPtoRun
    task_hardwarecontrol.o(.text) refers to queue.o(.text) for xQueueGenericSend
    task_hardwarecontrol.o(.text) refers to bsp_adc.o(.data) for Battery_Level
    task_hardwarecontrol.o(.text) refers to bsp_filesystem.o(.data) for Battery_Threshold
    task_hardwarecontrol.o(.text) refers to task_communicate_protocol.o(.data) for ACCESS_STATUS
    task_hardwarecontrol.o(.text) refers to task_communicate_protocol.o(.bss) for L2_TxKeys
    task_hardwarecontrol.o(.text) refers to main.o(.data) for L1_TxQue
    task_hardwarecontrol.o(.text) refers to bsp_gpio.o(.data) for PowerOn_Released
    task_hardwarecontrol.o(.text) refers to bsp_rtc.o(.data) for EXIT_FromRTC
    task_hardwarecontrol.o(.data) refers to bsp_gpio.o(.text) for bsp_LED1On
    bsp_adc.o(.text) refers to memseta.o(.text) for __aeabi_memclr4
    bsp_adc.o(.text) refers to stm32f4xx_adc.o(.text) for ADC_SoftwareStartConv
    bsp_adc.o(.text) refers to f2d.o(.text) for __aeabi_f2d
    bsp_adc.o(.text) refers to ddiv.o(.text) for __aeabi_ddiv
    bsp_adc.o(.text) refers to d2f.o(.text) for __aeabi_d2f
    bsp_adc.o(.text) refers to dfltui.o(.text) for __aeabi_ui2d
    bsp_adc.o(.text) refers to dmul.o(.text) for __aeabi_dmul
    bsp_adc.o(.text) refers to cdrcmple.o(.text) for __aeabi_cdrcmple
    bsp_adc.o(.text) refers to dadd.o(.text) for __aeabi_dadd
    bsp_adc.o(.text) refers to dfixui.o(.text) for __aeabi_d2uiz
    bsp_adc.o(.text) refers to stm32f4xx_rcc.o(.text) for RCC_APB2PeriphClockCmd
    bsp_adc.o(.text) refers to stm32f4xx_gpio.o(.text) for GPIO_Init
    bsp_adc.o(.text) refers to bsp_adc.o(.data) for VoltagetoCapacity
    bsp_aesecb256.o(.text) refers to crypto.o(i.AES_ECB_Encrypt_Init) for AES_ECB_Encrypt_Init
    bsp_aesecb256.o(.text) refers to crypto.o(i.AES_ECB_Encrypt_Append) for AES_ECB_Encrypt_Append
    bsp_aesecb256.o(.text) refers to crypto.o(i.AES_ECB_Encrypt_Finish) for AES_ECB_Encrypt_Finish
    bsp_aesecb256.o(.text) refers to crypto.o(i.AES_ECB_Decrypt_Init) for AES_ECB_Decrypt_Init
    bsp_aesecb256.o(.text) refers to crypto.o(i.AES_ECB_Decrypt_Append) for AES_ECB_Decrypt_Append
    bsp_aesecb256.o(.text) refers to crypto.o(i.AES_ECB_Decrypt_Finish) for AES_ECB_Decrypt_Finish
    bsp_filesystem.o(.text) refers to stm32f4xx_flash.o(.text) for FLASH_Unlock
    bsp_filesystem.o(.text) refers to ff.o(.text) for f_mount
    bsp_filesystem.o(.text) refers to memcpya.o(.text) for __aeabi_memcpy
    bsp_filesystem.o(.text) refers to bsp_filesystem.o(.bss) for fatfs_SDCARD
    bsp_filesystem.o(.text) refers to task_hardwarecontrol.o(.data) for SleepTime
    bsp_filesystem.o(.text) refers to bsp_filesystem.o(.data) for char_SysID_Length
    bsp_sdio.o(.text) refers to stm32f4xx_sdio.o(.text) for SDIO_GetFlagStatus
    bsp_sdio.o(.text) refers to bsp_delay.o(.text) for ForDelay_nus
    bsp_sdio.o(.text) refers to bsp_sdio.o(.data) for DeviceMode
    bsp_sdio.o(.text) refers to bsp_sdio.o(.bss) for SDIO_CmdInitStructure
    bsp_sdio.o(.text) refers to stm32f4xx_rcc.o(.text) for RCC_AHB1PeriphClockCmd
    bsp_sdio.o(.text) refers to stm32f4xx_gpio.o(.text) for GPIO_Init
    bsp_sdio.o(.text) refers to misc.o(.text) for NVIC_Init
    bsp_sdio.o(.text) refers to stm32f4xx_dma.o(.text) for DMA_GetCmdStatus
    bsp_sdio.o(.text) refers to memcpya.o(.text) for __aeabi_memcpy
    bsp_usart.o(.text) refers to stm32f4xx_rcc.o(.text) for RCC_AHB1PeriphClockCmd
    bsp_usart.o(.text) refers to stm32f4xx_gpio.o(.text) for GPIO_PinAFConfig
    bsp_usart.o(.text) refers to stm32f4xx_usart.o(.text) for USART_DeInit
    bsp_usart.o(.text) refers to misc.o(.text) for NVIC_Init
    bsp_usart.o(.text) refers to queue.o(.text) for xQueueReceiveFromISR
    bsp_usart.o(.text) refers to bsp_gpio.o(.text) for bsp_LED2On
    bsp_usart.o(.text) refers to bsp_usart.o(.data) for BT_IsReady
    bsp_usart.o(.text) refers to bsp_usart.o(.bss) for BT_CMDBufferRx
    bsp_usart.o(.text) refers to task_hardwarecontrol.o(.data) for BT_Machine
    bsp_usart.o(.text) refers to task_communicate_protocol.o(.data) for ACCESS_STATUS
    bsp_usart.o(.text) refers to task_hardwarecontrol.o(.bss) for BT_ADDRESS
    bsp_usart.o(.text) refers to main.o(.data) for L0_TxQue
    bsp_usart.o(.text) refers to task_communicate_protocol.o(.bss) for L0_RxBuffer
    bsp_gpio.o(.text) refers to stm32f4xx_rcc.o(.text) for RCC_AHB1PeriphClockCmd
    bsp_gpio.o(.text) refers to stm32f4xx_gpio.o(.text) for GPIO_Init
    bsp_gpio.o(.text) refers to stm32f4xx_syscfg.o(.text) for SYSCFG_EXTILineConfig
    bsp_gpio.o(.text) refers to stm32f4xx_exti.o(.text) for EXTI_Init
    bsp_gpio.o(.text) refers to misc.o(.text) for NVIC_Init
    bsp_gpio.o(.text) refers to stm32f4xx_tim.o(.text) for TIM_TimeBaseInit
    bsp_gpio.o(.text) refers to tasks.o(.text) for xTaskGetTickCountFromISR
    bsp_gpio.o(.text) refers to bsp_delay.o(.text) for ForDelay_nms
    bsp_gpio.o(.text) refers to ff.o(.text) for f_mount
    bsp_gpio.o(.text) refers to bsp_gpio.o(.bss) for Button
    bsp_gpio.o(.text) refers to bsp_gpio.o(.data) for PowerOn_Released
    bsp_gpio.o(.text) refers to bsp_filesystem.o(.bss) for fatfs_SDCARD
    startup_stm32f411xe.o(RESET) refers to startup_stm32f411xe.o(STACK) for __initial_sp
    startup_stm32f411xe.o(RESET) refers to startup_stm32f411xe.o(.text) for Reset_Handler
    startup_stm32f411xe.o(RESET) refers to stm32f4xx_it.o(.text) for NMI_Handler
    startup_stm32f411xe.o(RESET) refers to port.o(.emb_text) for SVC_Handler
    startup_stm32f411xe.o(RESET) refers to port.o(.text) for SysTick_Handler
    startup_stm32f411xe.o(RESET) refers to bsp_rtc.o(.text) for RTC_WKUP_IRQHandler
    startup_stm32f411xe.o(RESET) refers to task_hardwarecontrol.o(.text) for EXTI3_IRQHandler
    startup_stm32f411xe.o(RESET) refers to bsp_gpio.o(.text) for EXTI9_5_IRQHandler
    startup_stm32f411xe.o(RESET) refers to bsp_usart.o(.text) for USART2_IRQHandler
    startup_stm32f411xe.o(RESET) refers to bsp_sdio.o(.text) for SDIO_IRQHandler
    startup_stm32f411xe.o(.text) refers to system_stm32f4xx.o(.text) for SystemInit
    startup_stm32f411xe.o(.text) refers to entry.o(.ARM.Collect$$$$00000000) for __main
    bsp_rtc.o(.text) refers to stm32f4xx_rcc.o(.text) for RCC_APB1PeriphClockCmd
    bsp_rtc.o(.text) refers to stm32f4xx_pwr.o(.text) for PWR_BackupAccessCmd
    bsp_rtc.o(.text) refers to stm32f4xx_rtc.o(.text) for RTC_WaitForSynchro
    bsp_rtc.o(.text) refers to stm32f4xx_exti.o(.text) for EXTI_ClearITPendingBit
    bsp_rtc.o(.text) refers to misc.o(.text) for NVIC_Init
    bsp_rtc.o(.text) refers to stm32f4xx_iwdg.o(.text) for IWDG_ReloadCounter
    bsp_rtc.o(.text) refers to bsp_rtc.o(.data) for EXIT_FromRTC
    bsp_md5.o(.text) refers to crypto.o(i.MD5_Init) for MD5_Init
    bsp_md5.o(.text) refers to crypto.o(i.MD5_Append) for MD5_Append
    bsp_md5.o(.text) refers to crypto.o(i.MD5_Finish) for MD5_Finish
    bsp_md5.o(.text) refers to crypto.o(i.Crypto_DeInit) for Crypto_DeInit
    bsp_md5.o(.text) refers to bsp_md5.o(.data) for MessageDigestLength
    bsp_md5.o(.text) refers to bsp_md5.o(.bss) for MessageDigest
    bsp_md5.o(.text) refers to bsp_md5.o(.constdata) for InputMessage
    heap_2.o(.text) refers to tasks.o(.text) for vTaskSuspendAll
    heap_2.o(.text) refers to heap_2.o(.bss) for ucHeap
    heap_2.o(.text) refers to heap_2.o(.data) for xStart
    port.o(.emb_text) refers to tasks.o(.text) for vTaskSwitchContext
    port.o(.emb_text) refers to tasks.o(.data) for pxCurrentTCB
    port.o(.text) refers to port.o(.emb_text) for ulPortSetInterruptMask
    port.o(.text) refers to tasks.o(.text) for xTaskIncrementTick
    port.o(.text) refers to system_stm32f4xx.o(.data) for SystemCoreClock
    port.o(.text) refers to port.o(.data) for uxCriticalNesting
    queue.o(.text) refers to port.o(.text) for vPortEnterCritical
    queue.o(.text) refers to tasks.o(.text) for xTaskRemoveFromEventList
    queue.o(.text) refers to list.o(.text) for vListInitialise
    queue.o(.text) refers to heap_2.o(.text) for pvPortMalloc
    queue.o(.text) refers to memcpya.o(.text) for __aeabi_memcpy
    queue.o(.text) refers to port.o(.emb_text) for ulPortSetInterruptMask
    queue.o(.text) refers to queue.o(.bss) for xQueueRegistry
    tasks.o(.text) refers to list.o(.text) for vListInitialise
    tasks.o(.text) refers to heap_2.o(.text) for pvPortMalloc
    tasks.o(.text) refers to port.o(.text) for pxPortInitialiseStack
    tasks.o(.text) refers to tasks.o(.bss) for pxReadyTasksLists
    tasks.o(.text) refers to tasks.o(.data) for pxDelayedTaskList
    tasks.o(.text) refers to port.o(.emb_text) for ulPortSetInterruptMask
    usb_bsp.o(.text) refers to stm32f4xx_rcc.o(.text) for RCC_AHB1PeriphClockCmd
    usb_bsp.o(.text) refers to stm32f4xx_gpio.o(.text) for GPIO_Init
    usb_bsp.o(.text) refers to misc.o(.text) for NVIC_Init
    usb_bsp.o(.text) refers to bsp_delay.o(.text) for ForDelay_nms
    usb_core.o(.text) refers to usb_bsp.o(.text) for USB_OTG_BSP_uDelay
    usb_dcd.o(.text) refers to usb_core.o(.text) for USB_OTG_SelectCore
    usb_dcd.o(.text) refers to usb_bsp.o(.text) for USB_OTG_BSP_mDelay
    usb_dcd_int.o(.text) refers to usb_core.o(.text) for USB_OTG_EP0Activate
    usb_dcd_int.o(.text) refers to usbd_core.o(.data) for USBD_DCD_INT_fops
    usbd_core.o(.text) refers to usb_bsp.o(.text) for USB_OTG_BSP_Init
    usbd_core.o(.text) refers to usb_dcd.o(.text) for DCD_Init
    usbd_core.o(.text) refers to usbd_req.o(.text) for USBD_ParseSetupRequest
    usbd_core.o(.text) refers to usbd_ioreq.o(.text) for USBD_CtlContinueRx
    usbd_core.o(.text) refers to usbd_core.o(.data) for SET_TEST_MODE
    usbd_core.o(.data) refers to usbd_core.o(.text) for USBD_DataOutStage
    usbd_desc.o(.text) refers to usbd_req.o(.text) for USBD_GetString
    usbd_desc.o(.text) refers to usbd_desc.o(.data) for USBD_DeviceDesc
    usbd_desc.o(.text) refers to usbd_req.o(.bss) for USBD_StrDesc
    usbd_desc.o(.data) refers to usbd_desc.o(.text) for USBD_USR_DeviceDescriptor
    usbd_ioreq.o(.text) refers to usb_dcd.o(.text) for DCD_EP_Tx
    usbd_ioreq.o(.text) refers to usb_core.o(.text) for USB_OTG_EP0_OutStart
    usbd_msc_bot.o(.text) refers to usb_dcd.o(.text) for DCD_EP_Flush
    usbd_msc_bot.o(.text) refers to usbd_msc_scsi.o(.text) for SCSI_ProcessCmd
    usbd_msc_bot.o(.text) refers to usbd_ioreq.o(.text) for USBD_GetRxCount
    usbd_msc_bot.o(.text) refers to usbd_msc_bot.o(.data) for MSC_BOT_State
    usbd_msc_bot.o(.text) refers to usbd_storage.o(.data) for USBD_STORAGE_fops
    usbd_msc_bot.o(.text) refers to usbd_msc_bot.o(.bss) for MSC_BOT_cbw
    usbd_msc_core.o(.text) refers to usb_dcd.o(.text) for DCD_EP_Close
    usbd_msc_core.o(.text) refers to usbd_msc_bot.o(.text) for MSC_BOT_DeInit
    usbd_msc_core.o(.text) refers to usbd_ioreq.o(.text) for USBD_CtlSendData
    usbd_msc_core.o(.text) refers to usbd_req.o(.text) for USBD_CtlError
    usbd_msc_core.o(.text) refers to usbd_storage.o(.data) for USBD_STORAGE_fops
    usbd_msc_core.o(.text) refers to usbd_msc_core.o(.data) for USBD_MSC_MaxLun
    usbd_msc_core.o(.data) refers to usbd_msc_core.o(.text) for USBD_MSC_Init
    usbd_msc_scsi.o(.text) refers to usbd_msc_bot.o(.text) for MSC_BOT_SendCSW
    usbd_msc_scsi.o(.text) refers to usb_dcd.o(.text) for DCD_EP_PrepareRx
    usbd_msc_scsi.o(.text) refers to usbd_msc_scsi.o(.bss) for SCSI_Sense
    usbd_msc_scsi.o(.text) refers to usbd_msc_scsi.o(.data) for SCSI_Sense_Tail
    usbd_msc_scsi.o(.text) refers to usbd_msc_bot.o(.data) for MSC_BOT_DataLen
    usbd_msc_scsi.o(.text) refers to usbd_storage.o(.data) for USBD_STORAGE_fops
    usbd_msc_scsi.o(.text) refers to usbd_msc_bot.o(.bss) for MSC_BOT_Data
    usbd_msc_scsi.o(.text) refers to usbd_msc_data.o(.constdata) for MSC_Mode_Sense10_data
    usbd_req.o(.text) refers to usb_dcd.o(.text) for DCD_EP_Stall
    usbd_req.o(.text) refers to usb_core.o(.text) for USB_OTG_EP0_OutStart
    usbd_req.o(.text) refers to usbd_ioreq.o(.text) for USBD_CtlSendStatus
    usbd_req.o(.text) refers to usbd_core.o(.text) for USBD_SetCfg
    usbd_req.o(.text) refers to usbd_core.o(.data) for SET_TEST_MODE
    usbd_req.o(.text) refers to usbd_req.o(.data) for USBD_cfg_status
    usbd_storage.o(.text) refers to ldiv.o(.text) for __aeabi_ldivmod
    usbd_storage.o(.text) refers to bsp_sdio.o(.text) for SD_ReadDisk
    usbd_storage.o(.text) refers to bsp_delay.o(.text) for ForDelay_nms
    usbd_storage.o(.text) refers to bsp_sdio.o(.bss) for SDCardInfo
    usbd_storage.o(.text) refers to usbd_storage.o(.data) for USB_STATUS_REG
    usbd_storage.o(.data) refers to usbd_storage.o(.text) for STORAGE_Init
    usbd_usr.o(.text) refers to usbd_usr.o(.data) for UDISK_SUSPENDED
    usbd_usr.o(.text) refers to task_communicate_protocol.o(.data) for SD_IN
    usbd_usr.o(.text) refers to task_hardwarecontrol.o(.data) for SleepTime
    usbd_usr.o(.data) refers to usbd_usr.o(.text) for USBD_USR_Init
    diskio.o(.text) refers to bsp_sdio.o(.text) for SD_Init
    diskio.o(.text) refers to bsp_delay.o(.text) for ForDelay_nms
    diskio.o(.text) refers to ldiv.o(.text) for __aeabi_ldivmod
    diskio.o(.text) refers to task_communicate_protocol.o(.data) for SD_IN
    diskio.o(.text) refers to bsp_sdio.o(.bss) for SDCardInfo
    ff.o(.text) refers to diskio.o(.text) for disk_write
    ff.o(.text) refers to unicode.o(.text) for ff_wtoupper
    ff.o(.text) refers to ff.o(.constdata) for LfnOfs
    ff.o(.text) refers to ff.o(.data) for FatFs
    unicode.o(.text) refers to unicode.o(.constdata) for Tbl
    stm32f4xx_adc.o(.text) refers to stm32f4xx_rcc.o(.text) for RCC_APB2PeriphResetCmd
    stm32f4xx_gpio.o(.text) refers to stm32f4xx_rcc.o(.text) for RCC_AHB1PeriphResetCmd
    stm32f4xx_i2c.o(.text) refers to stm32f4xx_rcc.o(.text) for RCC_APB1PeriphResetCmd
    stm32f4xx_pwr.o(.text) refers to stm32f4xx_rcc.o(.text) for RCC_APB1PeriphResetCmd
    stm32f4xx_rcc.o(.text) refers to stm32f4xx_rcc.o(.data) for APBAHBPrescTable
    stm32f4xx_rng.o(.text) refers to stm32f4xx_rcc.o(.text) for RCC_AHB2PeriphResetCmd
    stm32f4xx_sdio.o(.text) refers to stm32f4xx_rcc.o(.text) for RCC_APB2PeriphResetCmd
    stm32f4xx_spi.o(.text) refers to stm32f4xx_rcc.o(.text) for RCC_APB2PeriphResetCmd
    stm32f4xx_syscfg.o(.text) refers to stm32f4xx_rcc.o(.text) for RCC_APB2PeriphResetCmd
    stm32f4xx_tim.o(.text) refers to stm32f4xx_rcc.o(.text) for RCC_APB2PeriphResetCmd
    stm32f4xx_usart.o(.text) refers to stm32f4xx_rcc.o(.text) for RCC_APB2PeriphResetCmd
    crypto.o(i.AES128_decrypt) refers to crypto.o(.constdata) for .constdata
    crypto.o(i.AES128_encrypt) refers to crypto.o(.constdata) for .constdata
    crypto.o(i.AES128_keyschedule_dec) refers to crypto.o(i.AES128_keyschedule_enc) for AES128_keyschedule_enc
    crypto.o(i.AES128_keyschedule_dec) refers to crypto.o(.constdata) for .constdata
    crypto.o(i.AES128_keyschedule_enc) refers to crypto.o(.constdata) for .constdata
    crypto.o(i.AES192_decrypt) refers to crypto.o(.constdata) for .constdata
    crypto.o(i.AES192_encrypt) refers to crypto.o(.constdata) for .constdata
    crypto.o(i.AES192_keyschedule_dec) refers to crypto.o(i.AES192_keyschedule_enc) for AES192_keyschedule_enc
    crypto.o(i.AES192_keyschedule_dec) refers to crypto.o(.constdata) for .constdata
    crypto.o(i.AES192_keyschedule_enc) refers to crypto.o(.constdata) for .constdata
    crypto.o(i.AES256_decrypt) refers to crypto.o(.constdata) for .constdata
    crypto.o(i.AES256_encrypt) refers to crypto.o(.constdata) for .constdata
    crypto.o(i.AES256_keyschedule_dec) refers to crypto.o(i.AES256_keyschedule_enc) for AES256_keyschedule_enc
    crypto.o(i.AES256_keyschedule_dec) refers to crypto.o(.constdata) for .constdata
    crypto.o(i.AES256_keyschedule_enc) refers to crypto.o(.constdata) for .constdata
    crypto.o(i.AES_CBC_Decrypt_Append) refers to crypto.o(i.AES128_decrypt) for AES128_decrypt
    crypto.o(i.AES_CBC_Decrypt_Append) refers to crypto.o(i.AES192_decrypt) for AES192_decrypt
    crypto.o(i.AES_CBC_Decrypt_Append) refers to crypto.o(i.AES256_decrypt) for AES256_decrypt
    crypto.o(i.AES_CBC_Decrypt_Init) refers to crypto.o(i.AESstdInit) for AESstdInit
    crypto.o(i.AES_CBC_Encrypt_Append) refers to crypto.o(i.AES128_encrypt) for AES128_encrypt
    crypto.o(i.AES_CBC_Encrypt_Append) refers to crypto.o(i.AES192_encrypt) for AES192_encrypt
    crypto.o(i.AES_CBC_Encrypt_Append) refers to crypto.o(i.AES256_encrypt) for AES256_encrypt
    crypto.o(i.AES_CBC_Encrypt_Init) refers to crypto.o(i.AESstdInit) for AESstdInit
    crypto.o(i.AES_CCM_Decrypt_Append) refers to crypto.o(i.AES128_encrypt) for AES128_encrypt
    crypto.o(i.AES_CCM_Decrypt_Append) refers to crypto.o(i.AES192_encrypt) for AES192_encrypt
    crypto.o(i.AES_CCM_Decrypt_Append) refers to crypto.o(i.AES256_encrypt) for AES256_encrypt
    crypto.o(i.AES_CCM_Decrypt_Finish) refers to crypto.o(i.AES128_encrypt) for AES128_encrypt
    crypto.o(i.AES_CCM_Decrypt_Finish) refers to crypto.o(i.AES192_encrypt) for AES192_encrypt
    crypto.o(i.AES_CCM_Decrypt_Finish) refers to crypto.o(i.AES256_encrypt) for AES256_encrypt
    crypto.o(i.AES_CCM_Decrypt_Init) refers to crypto.o(i.AES_CCM_Encrypt_Init) for AES_CCM_Encrypt_Init
    crypto.o(i.AES_CCM_Encrypt_Append) refers to crypto.o(i.AES128_encrypt) for AES128_encrypt
    crypto.o(i.AES_CCM_Encrypt_Append) refers to crypto.o(i.AES192_encrypt) for AES192_encrypt
    crypto.o(i.AES_CCM_Encrypt_Append) refers to crypto.o(i.AES256_encrypt) for AES256_encrypt
    crypto.o(i.AES_CCM_Encrypt_Finish) refers to crypto.o(i.AES128_encrypt) for AES128_encrypt
    crypto.o(i.AES_CCM_Encrypt_Finish) refers to crypto.o(i.AES192_encrypt) for AES192_encrypt
    crypto.o(i.AES_CCM_Encrypt_Finish) refers to crypto.o(i.AES256_encrypt) for AES256_encrypt
    crypto.o(i.AES_CCM_Encrypt_Init) refers to crypto.o(i.AES128_keyschedule_enc) for AES128_keyschedule_enc
    crypto.o(i.AES_CCM_Encrypt_Init) refers to crypto.o(i.AES192_keyschedule_enc) for AES192_keyschedule_enc
    crypto.o(i.AES_CCM_Encrypt_Init) refers to crypto.o(i.AES256_keyschedule_enc) for AES256_keyschedule_enc
    crypto.o(i.AES_CCM_Encrypt_Init) refers to crypto.o(i.AES128_encrypt) for AES128_encrypt
    crypto.o(i.AES_CCM_Encrypt_Init) refers to crypto.o(i.AES192_encrypt) for AES192_encrypt
    crypto.o(i.AES_CCM_Encrypt_Init) refers to crypto.o(i.AES256_encrypt) for AES256_encrypt
    crypto.o(i.AES_CCM_Header_Append) refers to crypto.o(i.AES128_encrypt) for AES128_encrypt
    crypto.o(i.AES_CCM_Header_Append) refers to crypto.o(i.AES192_encrypt) for AES192_encrypt
    crypto.o(i.AES_CCM_Header_Append) refers to crypto.o(i.AES256_encrypt) for AES256_encrypt
    crypto.o(i.AES_CMAC_Decrypt_Append) refers to crypto.o(i.AES_CMAC_Encrypt_Append) for AES_CMAC_Encrypt_Append
    crypto.o(i.AES_CMAC_Decrypt_Finish) refers to crypto.o(i.AES_CMAC_Encrypt_Append) for AES_CMAC_Encrypt_Append
    crypto.o(i.AES_CMAC_Decrypt_Init) refers to crypto.o(i.AESstdInit) for AESstdInit
    crypto.o(i.AES_CMAC_Encrypt_Append) refers to crypto.o(i.AES128_encrypt) for AES128_encrypt
    crypto.o(i.AES_CMAC_Encrypt_Append) refers to crypto.o(i.AES192_encrypt) for AES192_encrypt
    crypto.o(i.AES_CMAC_Encrypt_Append) refers to crypto.o(i.AES256_encrypt) for AES256_encrypt
    crypto.o(i.AES_CMAC_Encrypt_Finish) refers to crypto.o(i.AES_CMAC_Encrypt_Append) for AES_CMAC_Encrypt_Append
    crypto.o(i.AES_CMAC_Encrypt_Init) refers to crypto.o(i.AESstdInit) for AESstdInit
    crypto.o(i.AES_CTR_Decrypt_Append) refers to crypto.o(i.AES_CTR_Encrypt_Append) for AES_CTR_Encrypt_Append
    crypto.o(i.AES_CTR_Decrypt_Init) refers to crypto.o(i.AESstdInit) for AESstdInit
    crypto.o(i.AES_CTR_Encrypt_Append) refers to crypto.o(i.AES128_encrypt) for AES128_encrypt
    crypto.o(i.AES_CTR_Encrypt_Append) refers to crypto.o(i.AES192_encrypt) for AES192_encrypt
    crypto.o(i.AES_CTR_Encrypt_Append) refers to crypto.o(i.AES256_encrypt) for AES256_encrypt
    crypto.o(i.AES_CTR_Encrypt_Init) refers to crypto.o(i.AESstdInit) for AESstdInit
    crypto.o(i.AES_ECB_Decrypt_Append) refers to crypto.o(i.AES128_decrypt) for AES128_decrypt
    crypto.o(i.AES_ECB_Decrypt_Append) refers to crypto.o(i.AES192_decrypt) for AES192_decrypt
    crypto.o(i.AES_ECB_Decrypt_Append) refers to crypto.o(i.AES256_decrypt) for AES256_decrypt
    crypto.o(i.AES_ECB_Decrypt_Init) refers to crypto.o(i.AESstdInit) for AESstdInit
    crypto.o(i.AES_ECB_Encrypt_Append) refers to crypto.o(i.AES128_encrypt) for AES128_encrypt
    crypto.o(i.AES_ECB_Encrypt_Append) refers to crypto.o(i.AES192_encrypt) for AES192_encrypt
    crypto.o(i.AES_ECB_Encrypt_Append) refers to crypto.o(i.AES256_encrypt) for AES256_encrypt
    crypto.o(i.AES_ECB_Encrypt_Init) refers to crypto.o(i.AESstdInit) for AESstdInit
    crypto.o(i.AES_GCM_Decrypt_Append) refers to crypto.o(i.AESgcmAppend) for AESgcmAppend
    crypto.o(i.AES_GCM_Decrypt_Finish) refers to crypto.o(i.AESgcmFinal) for AESgcmFinal
    crypto.o(i.AES_GCM_Decrypt_Init) refers to crypto.o(i.AES_GCM_Encrypt_Init) for AES_GCM_Encrypt_Init
    crypto.o(i.AES_GCM_Encrypt_Append) refers to crypto.o(i.AESgcmAppend) for AESgcmAppend
    crypto.o(i.AES_GCM_Encrypt_Finish) refers to crypto.o(i.AESgcmFinal) for AESgcmFinal
    crypto.o(i.AES_GCM_Encrypt_Init) refers to crypto.o(i.AES128_keyschedule_enc) for AES128_keyschedule_enc
    crypto.o(i.AES_GCM_Encrypt_Init) refers to crypto.o(i.AES192_keyschedule_enc) for AES192_keyschedule_enc
    crypto.o(i.AES_GCM_Encrypt_Init) refers to crypto.o(i.AES256_keyschedule_enc) for AES256_keyschedule_enc
    crypto.o(i.AES_GCM_Encrypt_Init) refers to crypto.o(i.AES128_encrypt) for AES128_encrypt
    crypto.o(i.AES_GCM_Encrypt_Init) refers to crypto.o(i.AES192_encrypt) for AES192_encrypt
    crypto.o(i.AES_GCM_Encrypt_Init) refers to crypto.o(i.AES256_encrypt) for AES256_encrypt
    crypto.o(i.AES_GCM_Encrypt_Init) refers to crypto.o(.constdata) for .constdata
    crypto.o(i.AES_GCM_Header_Append) refers to crypto.o(i.gfmul) for gfmul
    crypto.o(i.AES_KeyWrap_Decrypt_Append) refers to memseta.o(.text) for __aeabi_memclr4
    crypto.o(i.AES_KeyWrap_Decrypt_Append) refers to crypto.o(i.AES128_decrypt) for AES128_decrypt
    crypto.o(i.AES_KeyWrap_Decrypt_Append) refers to crypto.o(i.AES192_decrypt) for AES192_decrypt
    crypto.o(i.AES_KeyWrap_Decrypt_Append) refers to crypto.o(i.AES256_decrypt) for AES256_decrypt
    crypto.o(i.AES_KeyWrap_Decrypt_Init) refers to crypto.o(i.AESstdInit) for AESstdInit
    crypto.o(i.AES_KeyWrap_Encrypt_Append) refers to memseta.o(.text) for __aeabi_memclr4
    crypto.o(i.AES_KeyWrap_Encrypt_Append) refers to crypto.o(i.AES128_encrypt) for AES128_encrypt
    crypto.o(i.AES_KeyWrap_Encrypt_Append) refers to crypto.o(i.AES192_encrypt) for AES192_encrypt
    crypto.o(i.AES_KeyWrap_Encrypt_Append) refers to crypto.o(i.AES256_encrypt) for AES256_encrypt
    crypto.o(i.AES_KeyWrap_Encrypt_Init) refers to crypto.o(i.AESstdInit) for AESstdInit
    crypto.o(i.AESgcmAppend) refers to crypto.o(i.gfmul) for gfmul
    crypto.o(i.AESgcmAppend) refers to crypto.o(i.AES128_encrypt) for AES128_encrypt
    crypto.o(i.AESgcmAppend) refers to crypto.o(i.AES192_encrypt) for AES192_encrypt
    crypto.o(i.AESgcmAppend) refers to crypto.o(i.AES256_encrypt) for AES256_encrypt
    crypto.o(i.AESgcmFinal) refers to crypto.o(i.gfmul) for gfmul
    crypto.o(i.AESgcmFinal) refers to crypto.o(i.AES128_encrypt) for AES128_encrypt
    crypto.o(i.AESgcmFinal) refers to crypto.o(i.AES192_encrypt) for AES192_encrypt
    crypto.o(i.AESgcmFinal) refers to crypto.o(i.AES256_encrypt) for AES256_encrypt
    crypto.o(i.AESstdInit) refers to crypto.o(i.AES128_keyschedule_enc) for AES128_keyschedule_enc
    crypto.o(i.AESstdInit) refers to crypto.o(i.AES192_keyschedule_enc) for AES192_keyschedule_enc
    crypto.o(i.AESstdInit) refers to crypto.o(i.AES256_keyschedule_enc) for AES256_keyschedule_enc
    crypto.o(i.AESstdInit) refers to crypto.o(i.AES256_keyschedule_dec) for AES256_keyschedule_dec
    crypto.o(i.AESstdInit) refers to crypto.o(i.AES128_keyschedule_dec) for AES128_keyschedule_dec
    crypto.o(i.AESstdInit) refers to crypto.o(i.AES192_keyschedule_dec) for AES192_keyschedule_dec
    crypto.o(i.ARC4_Decrypt_Append) refers to crypto.o(i.ARC4_Encrypt_Append) for ARC4_Encrypt_Append
    crypto.o(i.AddBig) refers to crypto.o(i.StAllocBig) for StAllocBig
    crypto.o(i.AddBig) refers to crypto.o(i.CompareBig) for CompareBig
    crypto.o(i.AddBig) refers to crypto.o(i.CopyBig) for CopyBig
    crypto.o(i.AddBig) refers to crypto.o(i.Sub_Moduli_Big) for Sub_Moduli_Big
    crypto.o(i.AddBig) refers to crypto.o(i.Add_Moduli_Big) for Add_Moduli_Big
    crypto.o(i.AddBig) refers to crypto.o(i.SetZeroBig) for SetZeroBig
    crypto.o(i.AddBig) refers to crypto.o(i.InitBig) for InitBig
    crypto.o(i.Add_Moduli_Big) refers to crypto.o(i.CopyBig) for CopyBig
    crypto.o(i.Big_to_fixedW8) refers to crypto.o(i.Big_to_W8) for Big_to_W8
    crypto.o(i.Crypto_DeInit) refers to stm32f4xx_rcc.o(.text) for RCC_AHB1PeriphClockCmd
    crypto.o(i.DES_CBC_Decrypt_Append) refers to crypto.o(i.desfunc) for desfunc
    crypto.o(i.DES_CBC_Decrypt_Init) refers to crypto.o(i.DESstdInit) for DESstdInit
    crypto.o(i.DES_CBC_Encrypt_Append) refers to crypto.o(i.desfunc) for desfunc
    crypto.o(i.DES_CBC_Encrypt_Init) refers to crypto.o(i.DESstdInit) for DESstdInit
    crypto.o(i.DES_ECB_Decrypt_Append) refers to crypto.o(i.desfunc) for desfunc
    crypto.o(i.DES_ECB_Decrypt_Init) refers to crypto.o(i.DESstdInit) for DESstdInit
    crypto.o(i.DES_ECB_Encrypt_Append) refers to crypto.o(i.desfunc) for desfunc
    crypto.o(i.DES_ECB_Encrypt_Init) refers to crypto.o(i.DESstdInit) for DESstdInit
    crypto.o(i.DESstdInit) refers to crypto.o(i.deskey) for deskey
    crypto.o(i.DRBG_AES128_Block_cipher_df) refers to memcpya.o(.text) for __aeabi_memcpy4
    crypto.o(i.DRBG_AES128_Block_cipher_df) refers to crypto.o(i.AES128_encrypt) for AES128_encrypt
    crypto.o(i.DRBG_AES128_Block_cipher_df) refers to crypto.o(i.AES128_keyschedule_enc) for AES128_keyschedule_enc
    crypto.o(i.DRBG_AES128_Block_cipher_df) refers to crypto.o(.constdata) for .constdata
    crypto.o(i.DRBG_AES128_Update) refers to crypto.o(i.AES128_encrypt) for AES128_encrypt
    crypto.o(i.ECCcopyPoint) refers to crypto.o(i.CopyBig) for CopyBig
    crypto.o(i.ECCfreeEC) refers to crypto.o(i.StFreeBig) for StFreeBig
    crypto.o(i.ECCfreePoint) refers to crypto.o(i.StFreeBig) for StFreeBig
    crypto.o(i.ECCfreePrivKey) refers to crypto.o(i.StFreeBig) for StFreeBig
    crypto.o(i.ECCgetPointCoordinate) refers to crypto.o(i.Big_to_fixedW8) for Big_to_fixedW8
    crypto.o(i.ECCgetPrivKeyValue) refers to crypto.o(i.Big_to_fixedW8) for Big_to_fixedW8
    crypto.o(i.ECCinitEC) refers to crypto.o(i.StAllocBig) for StAllocBig
    crypto.o(i.ECCinitEC) refers to crypto.o(i.W8_to_Big) for W8_to_Big
    crypto.o(i.ECCinitEC) refers to crypto.o(i.StFreeBig) for StFreeBig
    crypto.o(i.ECCinitPoint) refers to crypto.o(i.StAllocBig) for StAllocBig
    crypto.o(i.ECCinitPoint) refers to crypto.o(i.StFreeBig) for StFreeBig
    crypto.o(i.ECCinitPoint) refers to crypto.o(i.InitBig) for InitBig
    crypto.o(i.ECCinitPrivKey) refers to crypto.o(i.StAllocBig) for StAllocBig
    crypto.o(i.ECCinitPrivKey) refers to crypto.o(i.InitBig) for InitBig
    crypto.o(i.ECCkeyGen) refers to crypto.o(i.CountBits) for CountBits
    crypto.o(i.ECCkeyGen) refers to crypto.o(i.RNGgenBytes) for RNGgenBytes
    crypto.o(i.ECCkeyGen) refers to crypto.o(i.CompareBig) for CompareBig
    crypto.o(i.ECCkeyGen) refers to crypto.o(i.ECCinitPoint) for ECCinitPoint
    crypto.o(i.ECCkeyGen) refers to crypto.o(i.ECCsetPointGenerator) for ECCsetPointGenerator
    crypto.o(i.ECCkeyGen) refers to crypto.o(i.ECCscalarMul) for ECCscalarMul
    crypto.o(i.ECCkeyGen) refers to crypto.o(i.ECCfreePoint) for ECCfreePoint
    crypto.o(i.ECCpoint2Monty) refers to crypto.o(i.MontyMul) for MontyMul
    crypto.o(i.ECCpointFromMonty) refers to crypto.o(i.MontyExit) for MontyExit
    crypto.o(i.ECCscalarMul) refers to crypto.o(i.MontyInit) for MontyInit
    crypto.o(i.ECCscalarMul) refers to crypto.o(i.NAF_Binary_PointMul) for NAF_Binary_PointMul
    crypto.o(i.ECCscalarMul) refers to crypto.o(i.MontyKillAll) for MontyKillAll
    crypto.o(i.ECCscalarMul) refers to crypto.o(i.Normalize) for Normalize
    crypto.o(i.ECCsetPointCoordinate) refers to crypto.o(i.W8_to_Big) for W8_to_Big
    crypto.o(i.ECCsetPointGenerator) refers to crypto.o(i.CopyBig) for CopyBig
    crypto.o(i.ECCsetPointGenerator) refers to crypto.o(i.InitBig) for InitBig
    crypto.o(i.ECCsetPrivKeyValue) refers to crypto.o(i.W8_to_Big) for W8_to_Big
    crypto.o(i.ECCsymmetricPoint) refers to crypto.o(i.ECCcopyPoint) for ECCcopyPoint
    crypto.o(i.ECCsymmetricPoint) refers to crypto.o(i.SubBig) for SubBig
    crypto.o(i.ECCvalidatePubKey) refers to crypto.o(i.ECCinitPoint) for ECCinitPoint
    crypto.o(i.ECCvalidatePubKey) refers to crypto.o(i.CompareBig) for CompareBig
    crypto.o(i.ECCvalidatePubKey) refers to crypto.o(i.ECCcopyPoint) for ECCcopyPoint
    crypto.o(i.ECCvalidatePubKey) refers to crypto.o(i.MontyInit) for MontyInit
    crypto.o(i.ECCvalidatePubKey) refers to crypto.o(i.StAllocBig) for StAllocBig
    crypto.o(i.ECCvalidatePubKey) refers to crypto.o(i.MontyMul) for MontyMul
    crypto.o(i.ECCvalidatePubKey) refers to crypto.o(i.CopyBig) for CopyBig
    crypto.o(i.ECCvalidatePubKey) refers to crypto.o(i.ModularAddBig) for ModularAddBig
    crypto.o(i.ECCvalidatePubKey) refers to crypto.o(i.MontyKillAll) for MontyKillAll
    crypto.o(i.ECCvalidatePubKey) refers to crypto.o(i.ECCfreePoint) for ECCfreePoint
    crypto.o(i.ECDSAfreeSign) refers to crypto.o(i.StFreeBig) for StFreeBig
    crypto.o(i.ECDSAgetSignature) refers to crypto.o(i.Big_to_fixedW8) for Big_to_fixedW8
    crypto.o(i.ECDSAinitSign) refers to crypto.o(i.StAllocBig) for StAllocBig
    crypto.o(i.ECDSAinitSign) refers to crypto.o(i.StFreeBig) for StFreeBig
    crypto.o(i.ECDSAsetSignature) refers to crypto.o(i.W8_to_Big) for W8_to_Big
    crypto.o(i.ECDSAsign) refers to crypto.o(i.StAllocBig) for StAllocBig
    crypto.o(i.ECDSAsign) refers to crypto.o(i.ECCinitPoint) for ECCinitPoint
    crypto.o(i.ECDSAsign) refers to crypto.o(i.ECCsetPointGenerator) for ECCsetPointGenerator
    crypto.o(i.ECDSAsign) refers to crypto.o(i.MontyInit) for MontyInit
    crypto.o(i.ECDSAsign) refers to crypto.o(i.CountBits) for CountBits
    crypto.o(i.ECDSAsign) refers to crypto.o(i.RNGgenBytes) for RNGgenBytes
    crypto.o(i.ECDSAsign) refers to crypto.o(i.CompareBig) for CompareBig
    crypto.o(i.ECDSAsign) refers to crypto.o(i.NAF_Binary_PointMul) for NAF_Binary_PointMul
    crypto.o(i.ECDSAsign) refers to crypto.o(i.Normalize) for Normalize
    crypto.o(i.ECDSAsign) refers to crypto.o(i.AddBig) for AddBig
    crypto.o(i.ECDSAsign) refers to crypto.o(i.SubBig) for SubBig
    crypto.o(i.ECDSAsign) refers to crypto.o(i.MontyKillAll) for MontyKillAll
    crypto.o(i.ECDSAsign) refers to crypto.o(i.ECCfreePoint) for ECCfreePoint
    crypto.o(i.ECDSAsign) refers to crypto.o(i.ModularInvBig) for ModularInvBig
    crypto.o(i.ECDSAsign) refers to crypto.o(i.CopyBig) for CopyBig
    crypto.o(i.ECDSAsign) refers to crypto.o(i.MontyMul) for MontyMul
    crypto.o(i.ECDSAsign) refers to crypto.o(i.W8_to_Big) for W8_to_Big
    crypto.o(i.ECDSAsign) refers to crypto.o(i.MontyExit) for MontyExit
    crypto.o(i.ECDSAverify) refers to crypto.o(i.CompareBig) for CompareBig
    crypto.o(i.ECDSAverify) refers to crypto.o(i.StAllocBig) for StAllocBig
    crypto.o(i.ECDSAverify) refers to crypto.o(i.CountBits) for CountBits
    crypto.o(i.ECDSAverify) refers to crypto.o(i.W8_to_Big) for W8_to_Big
    crypto.o(i.ECDSAverify) refers to crypto.o(i.RightShift) for RightShift
    crypto.o(i.ECDSAverify) refers to crypto.o(i.ModularInvBig) for ModularInvBig
    crypto.o(i.ECDSAverify) refers to crypto.o(i.MontyInit) for MontyInit
    crypto.o(i.ECDSAverify) refers to crypto.o(i.MontyMul) for MontyMul
    crypto.o(i.ECDSAverify) refers to crypto.o(i.MontyKillAll) for MontyKillAll
    crypto.o(i.ECDSAverify) refers to crypto.o(i.ECCinitPoint) for ECCinitPoint
    crypto.o(i.ECDSAverify) refers to crypto.o(i.ECCsetPointGenerator) for ECCsetPointGenerator
    crypto.o(i.ECDSAverify) refers to crypto.o(i.NAF_Binary_PointMul) for NAF_Binary_PointMul
    crypto.o(i.ECDSAverify) refers to crypto.o(i.MontyJacProjAddPoints) for MontyJacProjAddPoints
    crypto.o(i.ECDSAverify) refers to crypto.o(i.Normalize) for Normalize
    crypto.o(i.ECDSAverify) refers to crypto.o(i.SubBig) for SubBig
    crypto.o(i.ECDSAverify) refers to crypto.o(i.ECCfreePoint) for ECCfreePoint
    crypto.o(i.FastDivInnerBase) refers to crypto.o(i.SetZeroBig) for SetZeroBig
    crypto.o(i.GenRndBN) refers to crypto.o(i.RNGgenBytes) for RNGgenBytes
    crypto.o(i.GenRndBNmodN) refers to crypto.o(i.CountBits) for CountBits
    crypto.o(i.GenRndBNmodN) refers to crypto.o(i.RNGgenBytes) for RNGgenBytes
    crypto.o(i.GenRndBNmodN) refers to crypto.o(i.CompareBig) for CompareBig
    crypto.o(i.HMAC_MD5_Append) refers to crypto.o(i.crl_u_MD5_Update) for crl_u_MD5_Update
    crypto.o(i.HMAC_MD5_Finish) refers to crypto.o(i.MD5_Finish) for MD5_Finish
    crypto.o(i.HMAC_MD5_Finish) refers to crypto.o(i.crl_u_MD5_Update) for crl_u_MD5_Update
    crypto.o(i.HMAC_MD5_Init) refers to crypto.o(i.crl_u_MD5_Update) for crl_u_MD5_Update
    crypto.o(i.HMAC_MD5_Init) refers to crypto.o(i.MD5_Finish) for MD5_Finish
    crypto.o(i.HMAC_SHA1_Append) refers to crypto.o(i.SHA1_Append) for SHA1_Append
    crypto.o(i.HMAC_SHA1_Finish) refers to crypto.o(i.SHA1_Finish) for SHA1_Finish
    crypto.o(i.HMAC_SHA1_Finish) refers to crypto.o(i.SHA1_Append) for SHA1_Append
    crypto.o(i.HMAC_SHA1_Init) refers to crypto.o(i.SHA1_Append) for SHA1_Append
    crypto.o(i.HMAC_SHA1_Init) refers to crypto.o(i.SHA1_Finish) for SHA1_Finish
    crypto.o(i.HMAC_SHA224_Append) refers to crypto.o(i.SHA256Update) for SHA256Update
    crypto.o(i.HMAC_SHA224_Finish) refers to crypto.o(i.SHA224_Finish) for SHA224_Finish
    crypto.o(i.HMAC_SHA224_Finish) refers to crypto.o(i.SHA256Update) for SHA256Update
    crypto.o(i.HMAC_SHA224_Init) refers to crypto.o(i.SHA256Update) for SHA256Update
    crypto.o(i.HMAC_SHA224_Init) refers to crypto.o(i.SHA224_Finish) for SHA224_Finish
    crypto.o(i.HMAC_SHA256_Append) refers to crypto.o(i.SHA256Update) for SHA256Update
    crypto.o(i.HMAC_SHA256_Finish) refers to crypto.o(i.SHA256_Finish) for SHA256_Finish
    crypto.o(i.HMAC_SHA256_Finish) refers to crypto.o(i.SHA256Update) for SHA256Update
    crypto.o(i.HMAC_SHA256_Init) refers to crypto.o(i.SHA256Update) for SHA256Update
    crypto.o(i.HMAC_SHA256_Init) refers to crypto.o(i.SHA256_Finish) for SHA256_Finish
    crypto.o(i.MD5_Append) refers to crypto.o(i.crl_u_MD5_Update) for crl_u_MD5_Update
    crypto.o(i.MD5_Finish) refers to crypto.o(i.crl_u_MD5_Finish) for crl_u_MD5_Finish
    crypto.o(i.ModularAddBig) refers to crypto.o(i.AddBig) for AddBig
    crypto.o(i.ModularAddBig) refers to crypto.o(i.CompareBig) for CompareBig
    crypto.o(i.ModularAddBig) refers to crypto.o(i.SubBig) for SubBig
    crypto.o(i.ModularExpSlidWin) refers to crypto.o(i.MontyInit) for MontyInit
    crypto.o(i.ModularExpSlidWin) refers to crypto.o(i.MontyMul) for MontyMul
    crypto.o(i.ModularExpSlidWin) refers to crypto.o(i.StAllocBig) for StAllocBig
    crypto.o(i.ModularExpSlidWin) refers to crypto.o(i.InitBig) for InitBig
    crypto.o(i.ModularExpSlidWin) refers to crypto.o(i.CopyBig) for CopyBig
    crypto.o(i.ModularExpSlidWin) refers to crypto.o(i.MontyExit) for MontyExit
    crypto.o(i.ModularExpSlidWin) refers to crypto.o(i.MontyKillAll) for MontyKillAll
    crypto.o(i.ModularExpSlidWin) refers to crypto.o(i.StFreeBig) for StFreeBig
    crypto.o(i.ModularFastMul2) refers to crypto.o(i.CompareBig) for CompareBig
    crypto.o(i.ModularFastMul2) refers to crypto.o(i.SubBig) for SubBig
    crypto.o(i.ModularInvBig) refers to crypto.o(i.StAllocBig) for StAllocBig
    crypto.o(i.ModularInvBig) refers to crypto.o(i.CopyBig) for CopyBig
    crypto.o(i.ModularInvBig) refers to crypto.o(i.InitBig) for InitBig
    crypto.o(i.ModularInvBig) refers to crypto.o(i.FastDiv2) for FastDiv2
    crypto.o(i.ModularInvBig) refers to crypto.o(i.AddBig) for AddBig
    crypto.o(i.ModularInvBig) refers to crypto.o(i.CompareBig) for CompareBig
    crypto.o(i.ModularInvBig) refers to crypto.o(i.SubBig) for SubBig
    crypto.o(i.ModularSubBig) refers to crypto.o(i.SubBig) for SubBig
    crypto.o(i.ModularSubBig) refers to crypto.o(i.AddBig) for AddBig
    crypto.o(i.MontyExit) refers to crypto.o(i.StAllocBig) for StAllocBig
    crypto.o(i.MontyExit) refers to crypto.o(i.InitBig) for InitBig
    crypto.o(i.MontyExit) refers to crypto.o(i.MontyMul) for MontyMul
    crypto.o(i.MontyInit) refers to crypto.o(i.StAllocBig) for StAllocBig
    crypto.o(i.MontyInit) refers to crypto.o(i.InitBig) for InitBig
    crypto.o(i.MontyInit) refers to crypto.o(i.CopyBig) for CopyBig
    crypto.o(i.MontyInit) refers to crypto.o(i.CountBits) for CountBits
    crypto.o(i.MontyInit) refers to crypto.o(i.LeftShift) for LeftShift
    crypto.o(i.MontyInit) refers to crypto.o(i.SubBig) for SubBig
    crypto.o(i.MontyInit) refers to crypto.o(i.SetZeroBig) for SetZeroBig
    crypto.o(i.MontyInit) refers to crypto.o(i.CompareBig) for CompareBig
    crypto.o(i.MontyJacProjAddPoints) refers to crypto.o(i.StAllocBig) for StAllocBig
    crypto.o(i.MontyJacProjAddPoints) refers to crypto.o(i.ECCcopyPoint) for ECCcopyPoint
    crypto.o(i.MontyJacProjAddPoints) refers to crypto.o(i.CopyBig) for CopyBig
    crypto.o(i.MontyJacProjAddPoints) refers to crypto.o(i.MontyMul) for MontyMul
    crypto.o(i.MontyJacProjAddPoints) refers to crypto.o(i.SubBig) for SubBig
    crypto.o(i.MontyJacProjAddPoints) refers to crypto.o(i.AddBig) for AddBig
    crypto.o(i.MontyJacProjAddPoints) refers to crypto.o(i.MontyJacProjDoublePoint) for MontyJacProjDoublePoint
    crypto.o(i.MontyJacProjAddPoints) refers to crypto.o(i.ModularFastMul2) for ModularFastMul2
    crypto.o(i.MontyJacProjDoublePoint) refers to crypto.o(i.StAllocBig) for StAllocBig
    crypto.o(i.MontyJacProjDoublePoint) refers to crypto.o(i.InitBig) for InitBig
    crypto.o(i.MontyJacProjDoublePoint) refers to crypto.o(i.MontyMul) for MontyMul
    crypto.o(i.MontyJacProjDoublePoint) refers to crypto.o(i.ModularFastMul2) for ModularFastMul2
    crypto.o(i.MontyJacProjDoublePoint) refers to crypto.o(i.AddBig) for AddBig
    crypto.o(i.MontyJacProjDoublePoint) refers to crypto.o(i.CompareBig) for CompareBig
    crypto.o(i.MontyJacProjDoublePoint) refers to crypto.o(i.SubBig) for SubBig
    crypto.o(i.MontyJacProjDoublePoint) refers to crypto.o(i.ModularAddBig) for ModularAddBig
    crypto.o(i.MontyJacProjDoublePoint) refers to crypto.o(i.CopyBig) for CopyBig
    crypto.o(i.MontyMul) refers to crypto.o(i.StAllocBig) for StAllocBig
    crypto.o(i.MontyMul) refers to crypto.o(i.InitBig) for InitBig
    crypto.o(i.MontyMul) refers to crypto.o(i.CompareBig) for CompareBig
    crypto.o(i.MontyMul) refers to crypto.o(i.Sub_Moduli_Big) for Sub_Moduli_Big
    crypto.o(i.MontyMul) refers to crypto.o(i.CopyBig) for CopyBig
    crypto.o(i.MulBigbyUnInt) refers to crypto.o(i.SetZeroBig) for SetZeroBig
    crypto.o(i.NAF_Binary_PointMul) refers to crypto.o(i.ECCinitPoint) for ECCinitPoint
    crypto.o(i.NAF_Binary_PointMul) refers to crypto.o(i.ECCcopyPoint) for ECCcopyPoint
    crypto.o(i.NAF_Binary_PointMul) refers to crypto.o(i.MontyMul) for MontyMul
    crypto.o(i.NAF_Binary_PointMul) refers to crypto.o(i.StAllocBig) for StAllocBig
    crypto.o(i.NAF_Binary_PointMul) refers to crypto.o(i.InitBig) for InitBig
    crypto.o(i.NAF_Binary_PointMul) refers to crypto.o(i.SubBig) for SubBig
    crypto.o(i.NAF_Binary_PointMul) refers to crypto.o(i.MontyJacProjDoublePoint) for MontyJacProjDoublePoint
    crypto.o(i.NAF_Binary_PointMul) refers to crypto.o(i.MontyJacProjAddPoints) for MontyJacProjAddPoints
    crypto.o(i.NAF_Binary_PointMul) refers to crypto.o(i.ECCfreePoint) for ECCfreePoint
    crypto.o(i.NAF_Binary_PointMul) refers to crypto.o(.constdata) for .constdata
    crypto.o(i.Normalize) refers to crypto.o(i.ECCcopyPoint) for ECCcopyPoint
    crypto.o(i.Normalize) refers to crypto.o(i.MontyExit) for MontyExit
    crypto.o(i.Normalize) refers to crypto.o(i.CopyBig) for CopyBig
    crypto.o(i.Normalize) refers to crypto.o(i.MontyMul) for MontyMul
    crypto.o(i.Normalize) refers to crypto.o(i.ModularInvBig) for ModularInvBig
    crypto.o(i.Normalize) refers to crypto.o(i.StAllocBig) for StAllocBig
    crypto.o(i.RNGfree) refers to stm32f4xx_rng.o(.text) for RNG_DeInit
    crypto.o(i.RNGfree) refers to stm32f4xx_rcc.o(.text) for RCC_AHB2PeriphClockCmd
    crypto.o(i.RNGgenBytes) refers to stm32f4xx_rng.o(.text) for RNG_Cmd
    crypto.o(i.RNGgenBytes) refers to crypto.o(i.crl_DRBG_AES128_Generate) for crl_DRBG_AES128_Generate
    crypto.o(i.RNGgenWords) refers to crypto.o(i.RNGgenBytes) for RNGgenBytes
    crypto.o(i.RNGinit) refers to stm32f4xx_rcc.o(.text) for RCC_AHB2PeriphClockCmd
    crypto.o(i.RNGinit) refers to stm32f4xx_rng.o(.text) for RNG_DeInit
    crypto.o(i.RNGinit) refers to memseta.o(.text) for __aeabi_memclr4
    crypto.o(i.RNGinit) refers to memcpya.o(.text) for __aeabi_memcpy4
    crypto.o(i.RNGinit) refers to crypto.o(i.DRBG_AES128_Block_cipher_df) for DRBG_AES128_Block_cipher_df
    crypto.o(i.RNGinit) refers to crypto.o(i.DRBG_AES128_Update) for DRBG_AES128_Update
    crypto.o(i.RNGinit) refers to crypto.o(.constdata) for .constdata
    crypto.o(i.RNGreseed) refers to memcpya.o(.text) for __aeabi_memcpy
    crypto.o(i.RNGreseed) refers to crypto.o(i.DRBG_AES128_Block_cipher_df) for DRBG_AES128_Block_cipher_df
    crypto.o(i.RNGreseed) refers to crypto.o(i.AES128_keyschedule_enc) for AES128_keyschedule_enc
    crypto.o(i.RNGreseed) refers to crypto.o(i.DRBG_AES128_Update) for DRBG_AES128_Update
    crypto.o(i.RSASP1) refers to crypto.o(i.crl_ModularExp) for crl_ModularExp
    crypto.o(i.RSAVP1) refers to crypto.o(i.crl_ModularExp) for crl_ModularExp
    crypto.o(i.RSA_PKCS1v15_Sign) refers to crypto.o(i.crl_ModularExp) for crl_ModularExp
    crypto.o(i.RSA_PKCS1v15_Verify) refers to crypto.o(i.crl_ModularExp) for crl_ModularExp
    crypto.o(i.SHA1Final) refers to crypto.o(i.SHA1Transform) for SHA1Transform
    crypto.o(i.SHA1Update) refers to memcpya.o(.text) for __aeabi_memcpy
    crypto.o(i.SHA1Update) refers to crypto.o(i.SHA1Transform) for SHA1Transform
    crypto.o(i.SHA1_Append) refers to memcpya.o(.text) for __aeabi_memcpy
    crypto.o(i.SHA1_Append) refers to crypto.o(i.SHA1Transform) for SHA1Transform
    crypto.o(i.SHA1_Finish) refers to crypto.o(i.SHA1Final) for SHA1Final
    crypto.o(i.SHA224Final) refers to crypto.o(i.SHA256Transform) for SHA256Transform
    crypto.o(i.SHA224_Append) refers to crypto.o(i.SHA256Update) for SHA256Update
    crypto.o(i.SHA224_Finish) refers to crypto.o(i.SHA224Final) for SHA224Final
    crypto.o(i.SHA256Final) refers to crypto.o(i.SHA256Transform) for SHA256Transform
    crypto.o(i.SHA256Transform) refers to crypto.o(.constdata) for .constdata
    crypto.o(i.SHA256Update) refers to memcpya.o(.text) for __aeabi_memcpy
    crypto.o(i.SHA256Update) refers to crypto.o(i.SHA256Transform) for SHA256Transform
    crypto.o(i.SHA256_Append) refers to crypto.o(i.SHA256Update) for SHA256Update
    crypto.o(i.SHA256_Finish) refers to crypto.o(i.SHA256Final) for SHA256Final
    crypto.o(i.SubBig) refers to crypto.o(i.StAllocBig) for StAllocBig
    crypto.o(i.SubBig) refers to crypto.o(i.CompareBig) for CompareBig
    crypto.o(i.SubBig) refers to crypto.o(i.Add_Moduli_Big) for Add_Moduli_Big
    crypto.o(i.SubBig) refers to crypto.o(i.Sub_Moduli_Big) for Sub_Moduli_Big
    crypto.o(i.SubBig) refers to crypto.o(i.SetZeroBig) for SetZeroBig
    crypto.o(i.SubBig) refers to crypto.o(i.InitBig) for InitBig
    crypto.o(i.SubBig) refers to crypto.o(i.CopyBig) for CopyBig
    crypto.o(i.TDES_CBC_Decrypt_Append) refers to crypto.o(i.desfunc) for desfunc
    crypto.o(i.TDES_CBC_Decrypt_Init) refers to crypto.o(i.TDESstdInit) for TDESstdInit
    crypto.o(i.TDES_CBC_Encrypt_Append) refers to crypto.o(i.desfunc) for desfunc
    crypto.o(i.TDES_CBC_Encrypt_Init) refers to crypto.o(i.TDESstdInit) for TDESstdInit
    crypto.o(i.TDES_ECB_Decrypt_Append) refers to crypto.o(i.desfunc) for desfunc
    crypto.o(i.TDES_ECB_Decrypt_Init) refers to crypto.o(i.TDESstdInit) for TDESstdInit
    crypto.o(i.TDES_ECB_Encrypt_Append) refers to crypto.o(i.desfunc) for desfunc
    crypto.o(i.TDES_ECB_Encrypt_Init) refers to crypto.o(i.TDESstdInit) for TDESstdInit
    crypto.o(i.TDESstdInit) refers to crypto.o(i.deskey) for deskey
    crypto.o(i.W8_to_Big) refers to crypto.o(i.SetZeroBig) for SetZeroBig
    crypto.o(i.crl_DRBG_AES128_Generate) refers to crypto.o(i.DRBG_AES128_Block_cipher_df) for DRBG_AES128_Block_cipher_df
    crypto.o(i.crl_DRBG_AES128_Generate) refers to crypto.o(i.AES128_keyschedule_enc) for AES128_keyschedule_enc
    crypto.o(i.crl_DRBG_AES128_Generate) refers to crypto.o(i.DRBG_AES128_Update) for DRBG_AES128_Update
    crypto.o(i.crl_DRBG_AES128_Generate) refers to crypto.o(i.AES128_encrypt) for AES128_encrypt
    crypto.o(i.crl_DRBG_AES128_Instantiate) refers to memseta.o(.text) for __aeabi_memclr4
    crypto.o(i.crl_DRBG_AES128_Instantiate) refers to memcpya.o(.text) for __aeabi_memcpy4
    crypto.o(i.crl_DRBG_AES128_Instantiate) refers to crypto.o(i.DRBG_AES128_Block_cipher_df) for DRBG_AES128_Block_cipher_df
    crypto.o(i.crl_DRBG_AES128_Instantiate) refers to crypto.o(i.DRBG_AES128_Update) for DRBG_AES128_Update
    crypto.o(i.crl_DRBG_AES128_Instantiate) refers to crypto.o(.constdata) for .constdata
    crypto.o(i.crl_DRBG_AES128_Reseed) refers to memcpya.o(.text) for __aeabi_memcpy
    crypto.o(i.crl_DRBG_AES128_Reseed) refers to crypto.o(i.DRBG_AES128_Block_cipher_df) for DRBG_AES128_Block_cipher_df
    crypto.o(i.crl_DRBG_AES128_Reseed) refers to crypto.o(i.AES128_keyschedule_enc) for AES128_keyschedule_enc
    crypto.o(i.crl_DRBG_AES128_Reseed) refers to crypto.o(i.DRBG_AES128_Update) for DRBG_AES128_Update
    crypto.o(i.crl_ModularExp) refers to crypto.o(i.StAllocBig) for StAllocBig
    crypto.o(i.crl_ModularExp) refers to crypto.o(i.W8_to_Big) for W8_to_Big
    crypto.o(i.crl_ModularExp) refers to crypto.o(i.CompareBig) for CompareBig
    crypto.o(i.crl_ModularExp) refers to crypto.o(i.ModularExpSlidWin) for ModularExpSlidWin
    crypto.o(i.crl_ModularExp) refers to crypto.o(i.Big_to_W8) for Big_to_W8
    crypto.o(i.crl_u_MD5_Finish) refers to crypto.o(i.crl_u_MD5_Update) for crl_u_MD5_Update
    crypto.o(i.crl_u_MD5_Finish) refers to crypto.o(.constdata) for .constdata
    crypto.o(i.crl_u_MD5_Update) refers to memcpya.o(.text) for __aeabi_memcpy
    crypto.o(i.crl_u_MD5_Update) refers to crypto.o(i.md5_process) for md5_process
    crypto.o(i.desfunc) refers to crypto.o(.constdata) for .constdata
    crypto.o(i.deskey) refers to memcpya.o(.text) for __aeabi_memcpy4
    crypto.o(i.deskey) refers to crypto.o(.constdata) for .constdata
    crypto.o(i.gfmul) refers to crypto.o(.constdata) for .constdata
    crypto.o(i.md5_process) refers to memcpya.o(.text) for __aeabi_memcpy
    entry.o(.ARM.Collect$$$$00000000) refers (Special) to entry10a.o(.ARM.Collect$$$$0000000D) for __rt_final_cpp
    entry.o(.ARM.Collect$$$$00000000) refers (Special) to entry11a.o(.ARM.Collect$$$$0000000F) for __rt_final_exit
    entry.o(.ARM.Collect$$$$00000000) refers (Special) to entry7b.o(.ARM.Collect$$$$00000008) for _main_clock
    entry.o(.ARM.Collect$$$$00000000) refers (Special) to entry8b.o(.ARM.Collect$$$$0000000A) for _main_cpp_init
    entry.o(.ARM.Collect$$$$00000000) refers (Special) to entry9a.o(.ARM.Collect$$$$0000000B) for _main_init
    entry.o(.ARM.Collect$$$$00000000) refers (Special) to entry5.o(.ARM.Collect$$$$00000004) for _main_scatterload
    entry.o(.ARM.Collect$$$$00000000) refers (Special) to entry2.o(.ARM.Collect$$$$00000001) for _main_stk
    ldiv.o(.text) refers to uldiv.o(.text) for __aeabi_uldivmod
    rand.o(.text) refers to rand.o(.data) for .data
    printfb.o(i.__0fprintf$bare) refers to printfb.o(i._printf_core) for _printf_core
    printfb.o(i.__0fprintf$bare) refers to bsp_usart.o(.text) for fputc
    printfb.o(i.__0printf$bare) refers to printfb.o(i._printf_core) for _printf_core
    printfb.o(i.__0printf$bare) refers to bsp_usart.o(.text) for fputc
    printfb.o(i.__0printf$bare) refers to bsp_usart.o(.data) for __stdout
    printfb.o(i.__0snprintf$bare) refers to printfb.o(i._printf_core) for _printf_core
    printfb.o(i.__0snprintf$bare) refers to printfb.o(i._snputc) for _snputc
    printfb.o(i.__0sprintf$bare) refers to printfb.o(i._printf_core) for _printf_core
    printfb.o(i.__0sprintf$bare) refers to printfb.o(i._sputc) for _sputc
    printfb.o(i.__0vfprintf$bare) refers to printfb.o(i._printf_core) for _printf_core
    printfb.o(i.__0vfprintf$bare) refers to bsp_usart.o(.text) for fputc
    printfb.o(i.__0vprintf$bare) refers to printfb.o(i._printf_core) for _printf_core
    printfb.o(i.__0vprintf$bare) refers to bsp_usart.o(.text) for fputc
    printfb.o(i.__0vprintf$bare) refers to bsp_usart.o(.data) for __stdout
    printfb.o(i.__0vsnprintf$bare) refers to printfb.o(i._printf_core) for _printf_core
    printfb.o(i.__0vsnprintf$bare) refers to printfb.o(i._snputc) for _snputc
    printfb.o(i.__0vsprintf$bare) refers to printfb.o(i._printf_core) for _printf_core
    printfb.o(i.__0vsprintf$bare) refers to printfb.o(i._sputc) for _sputc
    printf0.o(i.__0fprintf$0) refers to printf0.o(i._printf_core) for _printf_core
    printf0.o(i.__0fprintf$0) refers to bsp_usart.o(.text) for fputc
    printf0.o(i.__0printf$0) refers to printf0.o(i._printf_core) for _printf_core
    printf0.o(i.__0printf$0) refers to bsp_usart.o(.text) for fputc
    printf0.o(i.__0printf$0) refers to bsp_usart.o(.data) for __stdout
    printf0.o(i.__0snprintf$0) refers to printf0.o(i._printf_core) for _printf_core
    printf0.o(i.__0snprintf$0) refers to printf0.o(i._snputc) for _snputc
    printf0.o(i.__0sprintf$0) refers to printf0.o(i._printf_core) for _printf_core
    printf0.o(i.__0sprintf$0) refers to printf0.o(i._sputc) for _sputc
    printf0.o(i.__0vfprintf$0) refers to printf0.o(i._printf_core) for _printf_core
    printf0.o(i.__0vfprintf$0) refers to bsp_usart.o(.text) for fputc
    printf0.o(i.__0vprintf$0) refers to printf0.o(i._printf_core) for _printf_core
    printf0.o(i.__0vprintf$0) refers to bsp_usart.o(.text) for fputc
    printf0.o(i.__0vprintf$0) refers to bsp_usart.o(.data) for __stdout
    printf0.o(i.__0vsnprintf$0) refers to printf0.o(i._printf_core) for _printf_core
    printf0.o(i.__0vsnprintf$0) refers to printf0.o(i._snputc) for _snputc
    printf0.o(i.__0vsprintf$0) refers to printf0.o(i._printf_core) for _printf_core
    printf0.o(i.__0vsprintf$0) refers to printf0.o(i._sputc) for _sputc
    printf1.o(i.__0fprintf$1) refers to printf1.o(i._printf_core) for _printf_core
    printf1.o(i.__0fprintf$1) refers to bsp_usart.o(.text) for fputc
    printf1.o(i.__0printf$1) refers to printf1.o(i._printf_core) for _printf_core
    printf1.o(i.__0printf$1) refers to bsp_usart.o(.text) for fputc
    printf1.o(i.__0printf$1) refers to bsp_usart.o(.data) for __stdout
    printf1.o(i.__0snprintf$1) refers to printf1.o(i._printf_core) for _printf_core
    printf1.o(i.__0snprintf$1) refers to printf1.o(i._snputc) for _snputc
    printf1.o(i.__0sprintf$1) refers to printf1.o(i._printf_core) for _printf_core
    printf1.o(i.__0sprintf$1) refers to printf1.o(i._sputc) for _sputc
    printf1.o(i.__0vfprintf$1) refers to printf1.o(i._printf_core) for _printf_core
    printf1.o(i.__0vfprintf$1) refers to bsp_usart.o(.text) for fputc
    printf1.o(i.__0vprintf$1) refers to printf1.o(i._printf_core) for _printf_core
    printf1.o(i.__0vprintf$1) refers to bsp_usart.o(.text) for fputc
    printf1.o(i.__0vprintf$1) refers to bsp_usart.o(.data) for __stdout
    printf1.o(i.__0vsnprintf$1) refers to printf1.o(i._printf_core) for _printf_core
    printf1.o(i.__0vsnprintf$1) refers to printf1.o(i._snputc) for _snputc
    printf1.o(i.__0vsprintf$1) refers to printf1.o(i._printf_core) for _printf_core
    printf1.o(i.__0vsprintf$1) refers to printf1.o(i._sputc) for _sputc
    printf1.o(i._printf_core) refers to uidiv.o(.text) for __aeabi_uidivmod
    printf2.o(i.__0fprintf$2) refers to printf2.o(i._printf_core) for _printf_core
    printf2.o(i.__0fprintf$2) refers to bsp_usart.o(.text) for fputc
    printf2.o(i.__0printf$2) refers to printf2.o(i._printf_core) for _printf_core
    printf2.o(i.__0printf$2) refers to bsp_usart.o(.text) for fputc
    printf2.o(i.__0printf$2) refers to bsp_usart.o(.data) for __stdout
    printf2.o(i.__0snprintf$2) refers to printf2.o(i._printf_core) for _printf_core
    printf2.o(i.__0snprintf$2) refers to printf2.o(i._snputc) for _snputc
    printf2.o(i.__0sprintf$2) refers to printf2.o(i._printf_core) for _printf_core
    printf2.o(i.__0sprintf$2) refers to printf2.o(i._sputc) for _sputc
    printf2.o(i.__0vfprintf$2) refers to printf2.o(i._printf_core) for _printf_core
    printf2.o(i.__0vfprintf$2) refers to bsp_usart.o(.text) for fputc
    printf2.o(i.__0vprintf$2) refers to printf2.o(i._printf_core) for _printf_core
    printf2.o(i.__0vprintf$2) refers to bsp_usart.o(.text) for fputc
    printf2.o(i.__0vprintf$2) refers to bsp_usart.o(.data) for __stdout
    printf2.o(i.__0vsnprintf$2) refers to printf2.o(i._printf_core) for _printf_core
    printf2.o(i.__0vsnprintf$2) refers to printf2.o(i._snputc) for _snputc
    printf2.o(i.__0vsprintf$2) refers to printf2.o(i._printf_core) for _printf_core
    printf2.o(i.__0vsprintf$2) refers to printf2.o(i._sputc) for _sputc
    printf3.o(i.__0fprintf$3) refers to printf3.o(i._printf_core) for _printf_core
    printf3.o(i.__0fprintf$3) refers to bsp_usart.o(.text) for fputc
    printf3.o(i.__0printf$3) refers to printf3.o(i._printf_core) for _printf_core
    printf3.o(i.__0printf$3) refers to bsp_usart.o(.text) for fputc
    printf3.o(i.__0printf$3) refers to bsp_usart.o(.data) for __stdout
    printf3.o(i.__0snprintf$3) refers to printf3.o(i._printf_core) for _printf_core
    printf3.o(i.__0snprintf$3) refers to printf3.o(i._snputc) for _snputc
    printf3.o(i.__0sprintf$3) refers to printf3.o(i._printf_core) for _printf_core
    printf3.o(i.__0sprintf$3) refers to printf3.o(i._sputc) for _sputc
    printf3.o(i.__0vfprintf$3) refers to printf3.o(i._printf_core) for _printf_core
    printf3.o(i.__0vfprintf$3) refers to bsp_usart.o(.text) for fputc
    printf3.o(i.__0vprintf$3) refers to printf3.o(i._printf_core) for _printf_core
    printf3.o(i.__0vprintf$3) refers to bsp_usart.o(.text) for fputc
    printf3.o(i.__0vprintf$3) refers to bsp_usart.o(.data) for __stdout
    printf3.o(i.__0vsnprintf$3) refers to printf3.o(i._printf_core) for _printf_core
    printf3.o(i.__0vsnprintf$3) refers to printf3.o(i._snputc) for _snputc
    printf3.o(i.__0vsprintf$3) refers to printf3.o(i._printf_core) for _printf_core
    printf3.o(i.__0vsprintf$3) refers to printf3.o(i._sputc) for _sputc
    printf3.o(i._printf_core) refers to uidiv.o(.text) for __aeabi_uidivmod
    printf4.o(i.__0fprintf$4) refers to printf4.o(i._printf_core) for _printf_core
    printf4.o(i.__0fprintf$4) refers to bsp_usart.o(.text) for fputc
    printf4.o(i.__0printf$4) refers to printf4.o(i._printf_core) for _printf_core
    printf4.o(i.__0printf$4) refers to bsp_usart.o(.text) for fputc
    printf4.o(i.__0printf$4) refers to bsp_usart.o(.data) for __stdout
    printf4.o(i.__0snprintf$4) refers to printf4.o(i._printf_core) for _printf_core
    printf4.o(i.__0snprintf$4) refers to printf4.o(i._snputc) for _snputc
    printf4.o(i.__0sprintf$4) refers to printf4.o(i._printf_core) for _printf_core
    printf4.o(i.__0sprintf$4) refers to printf4.o(i._sputc) for _sputc
    printf4.o(i.__0vfprintf$4) refers to printf4.o(i._printf_core) for _printf_core
    printf4.o(i.__0vfprintf$4) refers to bsp_usart.o(.text) for fputc
    printf4.o(i.__0vprintf$4) refers to printf4.o(i._printf_core) for _printf_core
    printf4.o(i.__0vprintf$4) refers to bsp_usart.o(.text) for fputc
    printf4.o(i.__0vprintf$4) refers to bsp_usart.o(.data) for __stdout
    printf4.o(i.__0vsnprintf$4) refers to printf4.o(i._printf_core) for _printf_core
    printf4.o(i.__0vsnprintf$4) refers to printf4.o(i._snputc) for _snputc
    printf4.o(i.__0vsprintf$4) refers to printf4.o(i._printf_core) for _printf_core
    printf4.o(i.__0vsprintf$4) refers to printf4.o(i._sputc) for _sputc
    printf4.o(i._printf_core) refers to uldiv.o(.text) for __aeabi_uldivmod
    printf5.o(i.__0fprintf$5) refers to printf5.o(i._printf_core) for _printf_core
    printf5.o(i.__0fprintf$5) refers to bsp_usart.o(.text) for fputc
    printf5.o(i.__0printf$5) refers to printf5.o(i._printf_core) for _printf_core
    printf5.o(i.__0printf$5) refers to bsp_usart.o(.text) for fputc
    printf5.o(i.__0printf$5) refers to bsp_usart.o(.data) for __stdout
    printf5.o(i.__0snprintf$5) refers to printf5.o(i._printf_core) for _printf_core
    printf5.o(i.__0snprintf$5) refers to printf5.o(i._snputc) for _snputc
    printf5.o(i.__0sprintf$5) refers to printf5.o(i._printf_core) for _printf_core
    printf5.o(i.__0sprintf$5) refers to printf5.o(i._sputc) for _sputc
    printf5.o(i.__0vfprintf$5) refers to printf5.o(i._printf_core) for _printf_core
    printf5.o(i.__0vfprintf$5) refers to bsp_usart.o(.text) for fputc
    printf5.o(i.__0vprintf$5) refers to printf5.o(i._printf_core) for _printf_core
    printf5.o(i.__0vprintf$5) refers to bsp_usart.o(.text) for fputc
    printf5.o(i.__0vprintf$5) refers to bsp_usart.o(.data) for __stdout
    printf5.o(i.__0vsnprintf$5) refers to printf5.o(i._printf_core) for _printf_core
    printf5.o(i.__0vsnprintf$5) refers to printf5.o(i._snputc) for _snputc
    printf5.o(i.__0vsprintf$5) refers to printf5.o(i._printf_core) for _printf_core
    printf5.o(i.__0vsprintf$5) refers to printf5.o(i._sputc) for _sputc
    printf5.o(i._printf_core) refers to uldiv.o(.text) for __aeabi_uldivmod
    printf6.o(i.__0fprintf$6) refers to printf6.o(i._printf_core) for _printf_core
    printf6.o(i.__0fprintf$6) refers to bsp_usart.o(.text) for fputc
    printf6.o(i.__0printf$6) refers to printf6.o(i._printf_core) for _printf_core
    printf6.o(i.__0printf$6) refers to bsp_usart.o(.text) for fputc
    printf6.o(i.__0printf$6) refers to bsp_usart.o(.data) for __stdout
    printf6.o(i.__0snprintf$6) refers to printf6.o(i._printf_core) for _printf_core
    printf6.o(i.__0snprintf$6) refers to printf6.o(i._snputc) for _snputc
    printf6.o(i.__0sprintf$6) refers to printf6.o(i._printf_core) for _printf_core
    printf6.o(i.__0sprintf$6) refers to printf6.o(i._sputc) for _sputc
    printf6.o(i.__0vfprintf$6) refers to printf6.o(i._printf_core) for _printf_core
    printf6.o(i.__0vfprintf$6) refers to bsp_usart.o(.text) for fputc
    printf6.o(i.__0vprintf$6) refers to printf6.o(i._printf_core) for _printf_core
    printf6.o(i.__0vprintf$6) refers to bsp_usart.o(.text) for fputc
    printf6.o(i.__0vprintf$6) refers to bsp_usart.o(.data) for __stdout
    printf6.o(i.__0vsnprintf$6) refers to printf6.o(i._printf_core) for _printf_core
    printf6.o(i.__0vsnprintf$6) refers to printf6.o(i._snputc) for _snputc
    printf6.o(i.__0vsprintf$6) refers to printf6.o(i._printf_core) for _printf_core
    printf6.o(i.__0vsprintf$6) refers to printf6.o(i._sputc) for _sputc
    printf6.o(i._printf_core) refers to printf6.o(i._printf_pre_padding) for _printf_pre_padding
    printf6.o(i._printf_core) refers to uidiv.o(.text) for __aeabi_uidivmod
    printf6.o(i._printf_core) refers to printf6.o(i._printf_post_padding) for _printf_post_padding
    printf7.o(i.__0fprintf$7) refers to printf7.o(i._printf_core) for _printf_core
    printf7.o(i.__0fprintf$7) refers to bsp_usart.o(.text) for fputc
    printf7.o(i.__0printf$7) refers to printf7.o(i._printf_core) for _printf_core
    printf7.o(i.__0printf$7) refers to bsp_usart.o(.text) for fputc
    printf7.o(i.__0printf$7) refers to bsp_usart.o(.data) for __stdout
    printf7.o(i.__0snprintf$7) refers to printf7.o(i._printf_core) for _printf_core
    printf7.o(i.__0snprintf$7) refers to printf7.o(i._snputc) for _snputc
    printf7.o(i.__0sprintf$7) refers to printf7.o(i._printf_core) for _printf_core
    printf7.o(i.__0sprintf$7) refers to printf7.o(i._sputc) for _sputc
    printf7.o(i.__0vfprintf$7) refers to printf7.o(i._printf_core) for _printf_core
    printf7.o(i.__0vfprintf$7) refers to bsp_usart.o(.text) for fputc
    printf7.o(i.__0vprintf$7) refers to printf7.o(i._printf_core) for _printf_core
    printf7.o(i.__0vprintf$7) refers to bsp_usart.o(.text) for fputc
    printf7.o(i.__0vprintf$7) refers to bsp_usart.o(.data) for __stdout
    printf7.o(i.__0vsnprintf$7) refers to printf7.o(i._printf_core) for _printf_core
    printf7.o(i.__0vsnprintf$7) refers to printf7.o(i._snputc) for _snputc
    printf7.o(i.__0vsprintf$7) refers to printf7.o(i._printf_core) for _printf_core
    printf7.o(i.__0vsprintf$7) refers to printf7.o(i._sputc) for _sputc
    printf7.o(i._printf_core) refers to printf7.o(i._printf_pre_padding) for _printf_pre_padding
    printf7.o(i._printf_core) refers to uldiv.o(.text) for __aeabi_uldivmod
    printf7.o(i._printf_core) refers to printf7.o(i._printf_post_padding) for _printf_post_padding
    printf8.o(i.__0fprintf$8) refers to printf8.o(i._printf_core) for _printf_core
    printf8.o(i.__0fprintf$8) refers to bsp_usart.o(.text) for fputc
    printf8.o(i.__0printf$8) refers to printf8.o(i._printf_core) for _printf_core
    printf8.o(i.__0printf$8) refers to bsp_usart.o(.text) for fputc
    printf8.o(i.__0printf$8) refers to bsp_usart.o(.data) for __stdout
    printf8.o(i.__0snprintf$8) refers to printf8.o(i._printf_core) for _printf_core
    printf8.o(i.__0snprintf$8) refers to printf8.o(i._snputc) for _snputc
    printf8.o(i.__0sprintf$8) refers to printf8.o(i._printf_core) for _printf_core
    printf8.o(i.__0sprintf$8) refers to printf8.o(i._sputc) for _sputc
    printf8.o(i.__0vfprintf$8) refers to printf8.o(i._printf_core) for _printf_core
    printf8.o(i.__0vfprintf$8) refers to bsp_usart.o(.text) for fputc
    printf8.o(i.__0vprintf$8) refers to printf8.o(i._printf_core) for _printf_core
    printf8.o(i.__0vprintf$8) refers to bsp_usart.o(.text) for fputc
    printf8.o(i.__0vprintf$8) refers to bsp_usart.o(.data) for __stdout
    printf8.o(i.__0vsnprintf$8) refers to printf8.o(i._printf_core) for _printf_core
    printf8.o(i.__0vsnprintf$8) refers to printf8.o(i._snputc) for _snputc
    printf8.o(i.__0vsprintf$8) refers to printf8.o(i._printf_core) for _printf_core
    printf8.o(i.__0vsprintf$8) refers to printf8.o(i._sputc) for _sputc
    printf8.o(i._printf_core) refers to printf8.o(i._printf_pre_padding) for _printf_pre_padding
    printf8.o(i._printf_core) refers to uldiv.o(.text) for __aeabi_uldivmod
    printf8.o(i._printf_core) refers to printf8.o(i._printf_post_padding) for _printf_post_padding
    printfa.o(i.__0fprintf) refers (Special) to iusefp.o(.text) for __I$use$fp
    printfa.o(i.__0fprintf) refers to printfa.o(i._printf_core) for _printf_core
    printfa.o(i.__0fprintf) refers to bsp_usart.o(.text) for fputc
    printfa.o(i.__0printf) refers (Special) to iusefp.o(.text) for __I$use$fp
    printfa.o(i.__0printf) refers to printfa.o(i._printf_core) for _printf_core
    printfa.o(i.__0printf) refers to bsp_usart.o(.text) for fputc
    printfa.o(i.__0printf) refers to bsp_usart.o(.data) for __stdout
    printfa.o(i.__0snprintf) refers (Special) to iusefp.o(.text) for __I$use$fp
    printfa.o(i.__0snprintf) refers to printfa.o(i._printf_core) for _printf_core
    printfa.o(i.__0snprintf) refers to printfa.o(i._snputc) for _snputc
    printfa.o(i.__0sprintf) refers (Special) to iusefp.o(.text) for __I$use$fp
    printfa.o(i.__0sprintf) refers to printfa.o(i._printf_core) for _printf_core
    printfa.o(i.__0sprintf) refers to printfa.o(i._sputc) for _sputc
    printfa.o(i.__0vfprintf) refers (Special) to iusefp.o(.text) for __I$use$fp
    printfa.o(i.__0vfprintf) refers to printfa.o(i._printf_core) for _printf_core
    printfa.o(i.__0vfprintf) refers to bsp_usart.o(.text) for fputc
    printfa.o(i.__0vprintf) refers (Special) to iusefp.o(.text) for __I$use$fp
    printfa.o(i.__0vprintf) refers to printfa.o(i._printf_core) for _printf_core
    printfa.o(i.__0vprintf) refers to bsp_usart.o(.text) for fputc
    printfa.o(i.__0vprintf) refers to bsp_usart.o(.data) for __stdout
    printfa.o(i.__0vsnprintf) refers (Special) to iusefp.o(.text) for __I$use$fp
    printfa.o(i.__0vsnprintf) refers to printfa.o(i._printf_core) for _printf_core
    printfa.o(i.__0vsnprintf) refers to printfa.o(i._snputc) for _snputc
    printfa.o(i.__0vsprintf) refers (Special) to iusefp.o(.text) for __I$use$fp
    printfa.o(i.__0vsprintf) refers to printfa.o(i._printf_core) for _printf_core
    printfa.o(i.__0vsprintf) refers to printfa.o(i._sputc) for _sputc
    printfa.o(i._fp_digits) refers (Special) to iusefp.o(.text) for __I$use$fp
    printfa.o(i._fp_digits) refers to dmul.o(.text) for __aeabi_dmul
    printfa.o(i._fp_digits) refers to ddiv.o(.text) for __aeabi_ddiv
    printfa.o(i._fp_digits) refers to cdrcmple.o(.text) for __aeabi_cdrcmple
    printfa.o(i._fp_digits) refers to dadd.o(.text) for __aeabi_dadd
    printfa.o(i._fp_digits) refers to dfixul.o(.text) for __aeabi_d2ulz
    printfa.o(i._fp_digits) refers to uldiv.o(.text) for __aeabi_uldivmod
    printfa.o(i._printf_core) refers (Special) to iusefp.o(.text) for __I$use$fp
    printfa.o(i._printf_core) refers to printfa.o(i._printf_pre_padding) for _printf_pre_padding
    printfa.o(i._printf_core) refers to uldiv.o(.text) for __aeabi_uldivmod
    printfa.o(i._printf_core) refers to printfa.o(i._printf_post_padding) for _printf_post_padding
    printfa.o(i._printf_core) refers to printfa.o(i._fp_digits) for _fp_digits
    printfa.o(i._printf_core) refers to uidiv.o(.text) for __aeabi_uidivmod
    printfa.o(i._printf_post_padding) refers (Special) to iusefp.o(.text) for __I$use$fp
    printfa.o(i._printf_pre_padding) refers (Special) to iusefp.o(.text) for __I$use$fp
    printfa.o(i._snputc) refers (Special) to iusefp.o(.text) for __I$use$fp
    printfa.o(i._sputc) refers (Special) to iusefp.o(.text) for __I$use$fp
    dadd.o(.text) refers (Special) to iusefp.o(.text) for __I$use$fp
    dadd.o(.text) refers to llshl.o(.text) for __aeabi_llsl
    dadd.o(.text) refers to llsshr.o(.text) for __aeabi_lasr
    dadd.o(.text) refers to depilogue.o(.text) for _double_epilogue
    dmul.o(.text) refers (Special) to iusefp.o(.text) for __I$use$fp
    dmul.o(.text) refers to depilogue.o(.text) for _double_epilogue
    ddiv.o(.text) refers (Special) to iusefp.o(.text) for __I$use$fp
    ddiv.o(.text) refers to depilogue.o(.text) for _double_round
    dfltui.o(.text) refers (Special) to iusefp.o(.text) for __I$use$fp
    dfltui.o(.text) refers to depilogue.o(.text) for _double_epilogue
    dfixui.o(.text) refers (Special) to iusefp.o(.text) for __I$use$fp
    dfixui.o(.text) refers to llushr.o(.text) for __aeabi_llsr
    f2d.o(.text) refers (Special) to iusefp.o(.text) for __I$use$fp
    cdrcmple.o(.text) refers (Special) to iusefp.o(.text) for __I$use$fp
    d2f.o(.text) refers (Special) to iusefp.o(.text) for __I$use$fp
    d2f.o(.text) refers to fepilogue.o(.text) for _float_round
    entry2.o(.ARM.Collect$$$$00000001) refers to entry2.o(.ARM.Collect$$$$00002712) for __lit__00000000
    entry2.o(.ARM.Collect$$$$00002712) refers to startup_stm32f411xe.o(STACK) for __initial_sp
    entry2.o(__vectab_stack_and_reset_area) refers to startup_stm32f411xe.o(STACK) for __initial_sp
    entry2.o(__vectab_stack_and_reset_area) refers to entry.o(.ARM.Collect$$$$00000000) for __main
    entry5.o(.ARM.Collect$$$$00000004) refers to init.o(.text) for __scatterload
    entry9a.o(.ARM.Collect$$$$0000000B) refers to main.o(.text) for main
    entry9b.o(.ARM.Collect$$$$0000000C) refers to main.o(.text) for main
    uldiv.o(.text) refers to llushr.o(.text) for __aeabi_llsr
    uldiv.o(.text) refers to llshl.o(.text) for __aeabi_llsl
    depilogue.o(.text) refers to llshl.o(.text) for __aeabi_llsl
    depilogue.o(.text) refers to llushr.o(.text) for __aeabi_llsr
    dfixul.o(.text) refers to llushr.o(.text) for __aeabi_llsr
    dfixul.o(.text) refers to llshl.o(.text) for __aeabi_llsl
    init.o(.text) refers to entry5.o(.ARM.Collect$$$$00000004) for __main_after_scatterload


==============================================================================

Removing Unused input sections from the image.

    Removing main.o(.rev16_text), (4 bytes).
    Removing main.o(.revsh_text), (4 bytes).
    Removing stm32f4xx_it.o(.rev16_text), (4 bytes).
    Removing stm32f4xx_it.o(.revsh_text), (4 bytes).
    Removing task_communicate_protocol.o(.rev16_text), (4 bytes).
    Removing task_communicate_protocol.o(.revsh_text), (4 bytes).
    Removing system_stm32f4xx.o(.rev16_text), (4 bytes).
    Removing system_stm32f4xx.o(.revsh_text), (4 bytes).
    Removing task_hardwarecontrol.o(.rev16_text), (4 bytes).
    Removing task_hardwarecontrol.o(.revsh_text), (4 bytes).
    Removing bsp_adc.o(.rev16_text), (4 bytes).
    Removing bsp_adc.o(.revsh_text), (4 bytes).
    Removing bsp_aesecb256.o(.rev16_text), (4 bytes).
    Removing bsp_aesecb256.o(.revsh_text), (4 bytes).
    Removing bsp_delay.o(.rev16_text), (4 bytes).
    Removing bsp_delay.o(.revsh_text), (4 bytes).
    Removing bsp_delay.o(.data), (2 bytes).
    Removing bsp_filesystem.o(.rev16_text), (4 bytes).
    Removing bsp_filesystem.o(.revsh_text), (4 bytes).
    Removing bsp_filesystem.o(.constdata), (227 bytes).
    Removing bsp_sdio.o(.rev16_text), (4 bytes).
    Removing bsp_sdio.o(.revsh_text), (4 bytes).
    Removing bsp_usart.o(.rev16_text), (4 bytes).
    Removing bsp_usart.o(.revsh_text), (4 bytes).
    Removing bsp_gpio.o(.rev16_text), (4 bytes).
    Removing bsp_gpio.o(.revsh_text), (4 bytes).
    Removing startup_stm32f411xe.o(HEAP), (512 bytes).
    Removing bsp_rtc.o(.rev16_text), (4 bytes).
    Removing bsp_rtc.o(.revsh_text), (4 bytes).
    Removing bsp_md5.o(.rev16_text), (4 bytes).
    Removing bsp_md5.o(.revsh_text), (4 bytes).
    Removing usb_bsp.o(.rev16_text), (4 bytes).
    Removing usb_bsp.o(.revsh_text), (4 bytes).
    Removing usb_core.o(.rev16_text), (4 bytes).
    Removing usb_core.o(.revsh_text), (4 bytes).
    Removing usb_dcd.o(.rev16_text), (4 bytes).
    Removing usb_dcd.o(.revsh_text), (4 bytes).
    Removing usb_dcd_int.o(.rev16_text), (4 bytes).
    Removing usb_dcd_int.o(.revsh_text), (4 bytes).
    Removing usbd_core.o(.rev16_text), (4 bytes).
    Removing usbd_core.o(.revsh_text), (4 bytes).
    Removing usbd_desc.o(.rev16_text), (4 bytes).
    Removing usbd_desc.o(.revsh_text), (4 bytes).
    Removing usbd_ioreq.o(.rev16_text), (4 bytes).
    Removing usbd_ioreq.o(.revsh_text), (4 bytes).
    Removing usbd_msc_bot.o(.rev16_text), (4 bytes).
    Removing usbd_msc_bot.o(.revsh_text), (4 bytes).
    Removing usbd_msc_core.o(.rev16_text), (4 bytes).
    Removing usbd_msc_core.o(.revsh_text), (4 bytes).
    Removing usbd_msc_data.o(.rev16_text), (4 bytes).
    Removing usbd_msc_data.o(.revsh_text), (4 bytes).
    Removing usbd_msc_scsi.o(.rev16_text), (4 bytes).
    Removing usbd_msc_scsi.o(.revsh_text), (4 bytes).
    Removing usbd_req.o(.rev16_text), (4 bytes).
    Removing usbd_req.o(.revsh_text), (4 bytes).
    Removing usbd_storage.o(.rev16_text), (4 bytes).
    Removing usbd_storage.o(.revsh_text), (4 bytes).
    Removing usbd_usr.o(.rev16_text), (4 bytes).
    Removing usbd_usr.o(.revsh_text), (4 bytes).
    Removing diskio.o(.rev16_text), (4 bytes).
    Removing diskio.o(.revsh_text), (4 bytes).
    Removing diskio.o(.data), (1 bytes).
    Removing misc.o(.rev16_text), (4 bytes).
    Removing misc.o(.revsh_text), (4 bytes).
    Removing stm32f4xx_adc.o(.rev16_text), (4 bytes).
    Removing stm32f4xx_adc.o(.revsh_text), (4 bytes).
    Removing stm32f4xx_crc.o(.rev16_text), (4 bytes).
    Removing stm32f4xx_crc.o(.revsh_text), (4 bytes).
    Removing stm32f4xx_crc.o(.text), (72 bytes).
    Removing stm32f4xx_dma.o(.rev16_text), (4 bytes).
    Removing stm32f4xx_dma.o(.revsh_text), (4 bytes).
    Removing stm32f4xx_exti.o(.rev16_text), (4 bytes).
    Removing stm32f4xx_exti.o(.revsh_text), (4 bytes).
    Removing stm32f4xx_flash.o(.rev16_text), (4 bytes).
    Removing stm32f4xx_flash.o(.revsh_text), (4 bytes).
    Removing stm32f4xx_gpio.o(.rev16_text), (4 bytes).
    Removing stm32f4xx_gpio.o(.revsh_text), (4 bytes).
    Removing stm32f4xx_i2c.o(.rev16_text), (4 bytes).
    Removing stm32f4xx_i2c.o(.revsh_text), (4 bytes).
    Removing stm32f4xx_i2c.o(.text), (1110 bytes).
    Removing stm32f4xx_iwdg.o(.rev16_text), (4 bytes).
    Removing stm32f4xx_iwdg.o(.revsh_text), (4 bytes).
    Removing stm32f4xx_pwr.o(.rev16_text), (4 bytes).
    Removing stm32f4xx_pwr.o(.revsh_text), (4 bytes).
    Removing stm32f4xx_rcc.o(.rev16_text), (4 bytes).
    Removing stm32f4xx_rcc.o(.revsh_text), (4 bytes).
    Removing stm32f4xx_rng.o(.rev16_text), (4 bytes).
    Removing stm32f4xx_rng.o(.revsh_text), (4 bytes).
    Removing stm32f4xx_rng.o(.text), (160 bytes).
    Removing stm32f4xx_rtc.o(.rev16_text), (4 bytes).
    Removing stm32f4xx_rtc.o(.revsh_text), (4 bytes).
    Removing stm32f4xx_sdio.o(.rev16_text), (4 bytes).
    Removing stm32f4xx_sdio.o(.revsh_text), (4 bytes).
    Removing stm32f4xx_spi.o(.rev16_text), (4 bytes).
    Removing stm32f4xx_spi.o(.revsh_text), (4 bytes).
    Removing stm32f4xx_spi.o(.text), (1152 bytes).
    Removing stm32f4xx_syscfg.o(.rev16_text), (4 bytes).
    Removing stm32f4xx_syscfg.o(.revsh_text), (4 bytes).
    Removing stm32f4xx_tim.o(.rev16_text), (4 bytes).
    Removing stm32f4xx_tim.o(.revsh_text), (4 bytes).
    Removing stm32f4xx_usart.o(.rev16_text), (4 bytes).
    Removing stm32f4xx_usart.o(.revsh_text), (4 bytes).
    Removing crypto.o(.rev16_text), (4 bytes).
    Removing crypto.o(.revsh_text), (4 bytes).
    Removing crypto.o(i.AES_CBC_Decrypt_Append), (658 bytes).
    Removing crypto.o(i.AES_CBC_Decrypt_Finish), (26 bytes).
    Removing crypto.o(i.AES_CBC_Decrypt_Init), (6 bytes).
    Removing crypto.o(i.AES_CBC_Encrypt_Append), (514 bytes).
    Removing crypto.o(i.AES_CBC_Encrypt_Finish), (26 bytes).
    Removing crypto.o(i.AES_CBC_Encrypt_Init), (6 bytes).
    Removing crypto.o(i.AES_CCM_Decrypt_Append), (600 bytes).
    Removing crypto.o(i.AES_CCM_Decrypt_Finish), (392 bytes).
    Removing crypto.o(i.AES_CCM_Decrypt_Init), (4 bytes).
    Removing crypto.o(i.AES_CCM_Encrypt_Append), (1166 bytes).
    Removing crypto.o(i.AES_CCM_Encrypt_Finish), (256 bytes).
    Removing crypto.o(i.AES_CCM_Encrypt_Init), (660 bytes).
    Removing crypto.o(i.AES_CCM_Header_Append), (560 bytes).
    Removing crypto.o(i.AES_CMAC_Decrypt_Append), (4 bytes).
    Removing crypto.o(i.AES_CMAC_Decrypt_Finish), (308 bytes).
    Removing crypto.o(i.AES_CMAC_Decrypt_Init), (46 bytes).
    Removing crypto.o(i.AES_CMAC_Encrypt_Append), (1044 bytes).
    Removing crypto.o(i.AES_CMAC_Encrypt_Finish), (180 bytes).
    Removing crypto.o(i.AES_CMAC_Encrypt_Init), (46 bytes).
    Removing crypto.o(i.AES_CTR_Decrypt_Append), (16 bytes).
    Removing crypto.o(i.AES_CTR_Decrypt_Finish), (26 bytes).
    Removing crypto.o(i.AES_CTR_Decrypt_Init), (6 bytes).
    Removing crypto.o(i.AES_CTR_Encrypt_Append), (700 bytes).
    Removing crypto.o(i.AES_CTR_Encrypt_Finish), (26 bytes).
    Removing crypto.o(i.AES_CTR_Encrypt_Init), (6 bytes).
    Removing crypto.o(i.AES_GCM_Decrypt_Append), (22 bytes).
    Removing crypto.o(i.AES_GCM_Decrypt_Finish), (8 bytes).
    Removing crypto.o(i.AES_GCM_Decrypt_Init), (4 bytes).
    Removing crypto.o(i.AES_GCM_Encrypt_Append), (22 bytes).
    Removing crypto.o(i.AES_GCM_Encrypt_Finish), (6 bytes).
    Removing crypto.o(i.AES_GCM_Encrypt_Init), (1080 bytes).
    Removing crypto.o(i.AES_GCM_Header_Append), (406 bytes).
    Removing crypto.o(i.AES_KeyWrap_Decrypt_Append), (302 bytes).
    Removing crypto.o(i.AES_KeyWrap_Decrypt_Finish), (50 bytes).
    Removing crypto.o(i.AES_KeyWrap_Decrypt_Init), (20 bytes).
    Removing crypto.o(i.AES_KeyWrap_Encrypt_Append), (376 bytes).
    Removing crypto.o(i.AES_KeyWrap_Encrypt_Finish), (26 bytes).
    Removing crypto.o(i.AES_KeyWrap_Encrypt_Init), (20 bytes).
    Removing crypto.o(i.AESgcmAppend), (1142 bytes).
    Removing crypto.o(i.AESgcmFinal), (570 bytes).
    Removing crypto.o(i.ARC4_Decrypt_Append), (16 bytes).
    Removing crypto.o(i.ARC4_Decrypt_Finish), (26 bytes).
    Removing crypto.o(i.ARC4_Decrypt_Init), (132 bytes).
    Removing crypto.o(i.ARC4_Encrypt_Append), (348 bytes).
    Removing crypto.o(i.ARC4_Encrypt_Finish), (26 bytes).
    Removing crypto.o(i.ARC4_Encrypt_Init), (130 bytes).
    Removing crypto.o(i.AddBig), (318 bytes).
    Removing crypto.o(i.Add_Moduli_Big), (454 bytes).
    Removing crypto.o(i.Big_to_W8), (180 bytes).
    Removing crypto.o(i.Big_to_fixedW8), (140 bytes).
    Removing crypto.o(i.CompareBig), (166 bytes).
    Removing crypto.o(i.CopyBig), (158 bytes).
    Removing crypto.o(i.CountBits), (48 bytes).
    Removing crypto.o(i.CountBytes), (50 bytes).
    Removing crypto.o(i.DES_CBC_Decrypt_Append), (196 bytes).
    Removing crypto.o(i.DES_CBC_Decrypt_Finish), (26 bytes).
    Removing crypto.o(i.DES_CBC_Decrypt_Init), (6 bytes).
    Removing crypto.o(i.DES_CBC_Encrypt_Append), (160 bytes).
    Removing crypto.o(i.DES_CBC_Encrypt_Finish), (26 bytes).
    Removing crypto.o(i.DES_CBC_Encrypt_Init), (6 bytes).
    Removing crypto.o(i.DES_ECB_Decrypt_Append), (172 bytes).
    Removing crypto.o(i.DES_ECB_Decrypt_Finish), (26 bytes).
    Removing crypto.o(i.DES_ECB_Decrypt_Init), (6 bytes).
    Removing crypto.o(i.DES_ECB_Encrypt_Append), (172 bytes).
    Removing crypto.o(i.DES_ECB_Encrypt_Finish), (26 bytes).
    Removing crypto.o(i.DES_ECB_Encrypt_Init), (6 bytes).
    Removing crypto.o(i.DESstdInit), (248 bytes).
    Removing crypto.o(i.DRBG_AES128_Block_cipher_df), (384 bytes).
    Removing crypto.o(i.DRBG_AES128_Update), (134 bytes).
    Removing crypto.o(i.ECCcopyPoint), (102 bytes).
    Removing crypto.o(i.ECCfreeEC), (124 bytes).
    Removing crypto.o(i.ECCfreePoint), (66 bytes).
    Removing crypto.o(i.ECCfreePrivKey), (46 bytes).
    Removing crypto.o(i.ECCgetPointCoordinate), (188 bytes).
    Removing crypto.o(i.ECCgetPointFlag), (12 bytes).
    Removing crypto.o(i.ECCgetPrivKeyValue), (128 bytes).
    Removing crypto.o(i.ECCinitEC), (440 bytes).
    Removing crypto.o(i.ECCinitPoint), (208 bytes).
    Removing crypto.o(i.ECCinitPrivKey), (110 bytes).
    Removing crypto.o(i.ECCkeyGen), (368 bytes).
    Removing crypto.o(i.ECCpoint2Monty), (70 bytes).
    Removing crypto.o(i.ECCpointFromMonty), (72 bytes).
    Removing crypto.o(i.ECCscalarMul), (236 bytes).
    Removing crypto.o(i.ECCsetPointCoordinate), (74 bytes).
    Removing crypto.o(i.ECCsetPointFlag), (8 bytes).
    Removing crypto.o(i.ECCsetPointGenerator), (128 bytes).
    Removing crypto.o(i.ECCsetPrivKeyValue), (36 bytes).
    Removing crypto.o(i.ECCsymmetricPoint), (42 bytes).
    Removing crypto.o(i.ECCvalidatePubKey), (608 bytes).
    Removing crypto.o(i.ECDSAfreeSign), (56 bytes).
    Removing crypto.o(i.ECDSAgetSignature), (164 bytes).
    Removing crypto.o(i.ECDSAinitSign), (124 bytes).
    Removing crypto.o(i.ECDSAsetSignature), (48 bytes).
    Removing crypto.o(i.ECDSAsign), (1530 bytes).
    Removing crypto.o(i.ECDSAverify), (810 bytes).
    Removing crypto.o(i.EvenBig), (16 bytes).
    Removing crypto.o(i.FastDiv2), (98 bytes).
    Removing crypto.o(i.FastDivInnerBase), (64 bytes).
    Removing crypto.o(i.FastMul2), (110 bytes).
    Removing crypto.o(i.FastMulInnerBase), (164 bytes).
    Removing crypto.o(i.GenRndBN), (128 bytes).
    Removing crypto.o(i.GenRndBNmodN), (172 bytes).
    Removing crypto.o(i.GiveBit), (30 bytes).
    Removing crypto.o(i.HMAC_MD5_Append), (52 bytes).
    Removing crypto.o(i.HMAC_MD5_Finish), (180 bytes).
    Removing crypto.o(i.HMAC_MD5_Init), (348 bytes).
    Removing crypto.o(i.HMAC_SHA1_Append), (16 bytes).
    Removing crypto.o(i.HMAC_SHA1_Finish), (160 bytes).
    Removing crypto.o(i.HMAC_SHA1_Init), (340 bytes).
    Removing crypto.o(i.HMAC_SHA224_Append), (52 bytes).
    Removing crypto.o(i.HMAC_SHA224_Finish), (220 bytes).
    Removing crypto.o(i.HMAC_SHA224_Init), (408 bytes).
    Removing crypto.o(i.HMAC_SHA256_Append), (52 bytes).
    Removing crypto.o(i.HMAC_SHA256_Finish), (220 bytes).
    Removing crypto.o(i.HMAC_SHA256_Init), (408 bytes).
    Removing crypto.o(i.InitBig), (104 bytes).
    Removing crypto.o(i.IsZeroBig), (22 bytes).
    Removing crypto.o(i.LeftShift), (144 bytes).
    Removing crypto.o(i.ModularAddBig), (68 bytes).
    Removing crypto.o(i.ModularExpSlidWin), (616 bytes).
    Removing crypto.o(i.ModularFastMul2), (138 bytes).
    Removing crypto.o(i.ModularInvBig), (540 bytes).
    Removing crypto.o(i.ModularSubBig), (40 bytes).
    Removing crypto.o(i.MontyExit), (88 bytes).
    Removing crypto.o(i.MontyInit), (874 bytes).
    Removing crypto.o(i.MontyJacProjAddPoints), (894 bytes).
    Removing crypto.o(i.MontyJacProjDoublePoint), (778 bytes).
    Removing crypto.o(i.MontyKillAll), (48 bytes).
    Removing crypto.o(i.MontyKillR2), (38 bytes).
    Removing crypto.o(i.MontyMul), (524 bytes).
    Removing crypto.o(i.MulBigbyUnInt), (112 bytes).
    Removing crypto.o(i.NAF_Binary_PointMul), (836 bytes).
    Removing crypto.o(i.Normalize), (368 bytes).
    Removing crypto.o(i.RNGfree), (72 bytes).
    Removing crypto.o(i.RNGgenBytes), (468 bytes).
    Removing crypto.o(i.RNGgenWords), (6 bytes).
    Removing crypto.o(i.RNGinit), (264 bytes).
    Removing crypto.o(i.RNGreseed), (206 bytes).
    Removing crypto.o(i.RSASP1), (100 bytes).
    Removing crypto.o(i.RSAVP1), (34 bytes).
    Removing crypto.o(i.RSA_PKCS1v15_Sign), (640 bytes).
    Removing crypto.o(i.RSA_PKCS1v15_Verify), (744 bytes).
    Removing crypto.o(i.RightShift), (176 bytes).
    Removing crypto.o(i.SHA1Final), (392 bytes).
    Removing crypto.o(i.SHA1Init), (48 bytes).
    Removing crypto.o(i.SHA1Transform), (892 bytes).
    Removing crypto.o(i.SHA1Update), (154 bytes).
    Removing crypto.o(i.SHA1_Append), (188 bytes).
    Removing crypto.o(i.SHA1_Finish), (144 bytes).
    Removing crypto.o(i.SHA1_Init), (68 bytes).
    Removing crypto.o(i.SHA224Final), (390 bytes).
    Removing crypto.o(i.SHA224Init), (72 bytes).
    Removing crypto.o(i.SHA224_Append), (42 bytes).
    Removing crypto.o(i.SHA224_Finish), (144 bytes).
    Removing crypto.o(i.SHA224_Init), (92 bytes).
    Removing crypto.o(i.SHA256Final), (390 bytes).
    Removing crypto.o(i.SHA256Init), (72 bytes).
    Removing crypto.o(i.SHA256Transform), (600 bytes).
    Removing crypto.o(i.SHA256Update), (154 bytes).
    Removing crypto.o(i.SHA256_Append), (42 bytes).
    Removing crypto.o(i.SHA256_Finish), (144 bytes).
    Removing crypto.o(i.SHA256_Init), (92 bytes).
    Removing crypto.o(i.SetZeroBig), (70 bytes).
    Removing crypto.o(i.SignBig), (10 bytes).
    Removing crypto.o(i.StAllocBig), (66 bytes).
    Removing crypto.o(i.StFreeBig), (36 bytes).
    Removing crypto.o(i.SubBig), (234 bytes).
    Removing crypto.o(i.Sub_Moduli_Big), (436 bytes).
    Removing crypto.o(i.TDES_CBC_Decrypt_Append), (216 bytes).
    Removing crypto.o(i.TDES_CBC_Decrypt_Finish), (26 bytes).
    Removing crypto.o(i.TDES_CBC_Decrypt_Init), (6 bytes).
    Removing crypto.o(i.TDES_CBC_Encrypt_Append), (184 bytes).
    Removing crypto.o(i.TDES_CBC_Encrypt_Finish), (26 bytes).
    Removing crypto.o(i.TDES_CBC_Encrypt_Init), (6 bytes).
    Removing crypto.o(i.TDES_ECB_Decrypt_Append), (192 bytes).
    Removing crypto.o(i.TDES_ECB_Decrypt_Finish), (26 bytes).
    Removing crypto.o(i.TDES_ECB_Decrypt_Init), (6 bytes).
    Removing crypto.o(i.TDES_ECB_Encrypt_Append), (192 bytes).
    Removing crypto.o(i.TDES_ECB_Encrypt_Finish), (26 bytes).
    Removing crypto.o(i.TDES_ECB_Encrypt_Init), (6 bytes).
    Removing crypto.o(i.TDESstdInit), (292 bytes).
    Removing crypto.o(i.W32_to_W8), (124 bytes).
    Removing crypto.o(i.W8_to_Big), (326 bytes).
    Removing crypto.o(i.crl_DRBG_AES128_Generate), (450 bytes).
    Removing crypto.o(i.crl_DRBG_AES128_Instantiate), (188 bytes).
    Removing crypto.o(i.crl_DRBG_AES128_Reseed), (164 bytes).
    Removing crypto.o(i.crl_ModularExp), (556 bytes).
    Removing crypto.o(i.crl_u_MD5_Init), (40 bytes).
    Removing crypto.o(i.desfunc), (476 bytes).
    Removing crypto.o(i.deskey), (608 bytes).
    Removing crypto.o(i.gfmul), (364 bytes).
    Removing dfixul.o(.text), (48 bytes).

296 unused section(s) (total 46240 bytes) removed from the image.

==============================================================================

Image Symbol Table

    Local Symbols

    Symbol Name                              Value     Ov Type        Size  Object(Section)

    ../clib/../cmprslib/zerorunl2.c          0x00000000   Number         0  __dczerorl2.o ABSOLUTE
    ../clib/microlib/division.c              0x00000000   Number         0  uidiv.o ABSOLUTE
    ../clib/microlib/division.c              0x00000000   Number         0  ldiv.o ABSOLUTE
    ../clib/microlib/division.c              0x00000000   Number         0  uldiv.o ABSOLUTE
    ../clib/microlib/init/entry.s            0x00000000   Number         0  entry5.o ABSOLUTE
    ../clib/microlib/init/entry.s            0x00000000   Number         0  entry7a.o ABSOLUTE
    ../clib/microlib/init/entry.s            0x00000000   Number         0  entry7b.o ABSOLUTE
    ../clib/microlib/init/entry.s            0x00000000   Number         0  entry8a.o ABSOLUTE
    ../clib/microlib/init/entry.s            0x00000000   Number         0  entry8b.o ABSOLUTE
    ../clib/microlib/init/entry.s            0x00000000   Number         0  entry9b.o ABSOLUTE
    ../clib/microlib/init/entry.s            0x00000000   Number         0  entry10a.o ABSOLUTE
    ../clib/microlib/init/entry.s            0x00000000   Number         0  entry.o ABSOLUTE
    ../clib/microlib/init/entry.s            0x00000000   Number         0  entry2.o ABSOLUTE
    ../clib/microlib/init/entry.s            0x00000000   Number         0  entry9a.o ABSOLUTE
    ../clib/microlib/init/entry.s            0x00000000   Number         0  entry10b.o ABSOLUTE
    ../clib/microlib/init/entry.s            0x00000000   Number         0  entry11a.o ABSOLUTE
    ../clib/microlib/init/entry.s            0x00000000   Number         0  entry11b.o ABSOLUTE
    ../clib/microlib/longlong.c              0x00000000   Number         0  llshl.o ABSOLUTE
    ../clib/microlib/longlong.c              0x00000000   Number         0  llushr.o ABSOLUTE
    ../clib/microlib/longlong.c              0x00000000   Number         0  llsshr.o ABSOLUTE
    ../clib/microlib/printf/printf.c         0x00000000   Number         0  printf2.o ABSOLUTE
    ../clib/microlib/printf/printf.c         0x00000000   Number         0  printfa.o ABSOLUTE
    ../clib/microlib/printf/printf.c         0x00000000   Number         0  printfb.o ABSOLUTE
    ../clib/microlib/printf/printf.c         0x00000000   Number         0  printf0.o ABSOLUTE
    ../clib/microlib/printf/printf.c         0x00000000   Number         0  printf1.o ABSOLUTE
    ../clib/microlib/printf/printf.c         0x00000000   Number         0  printf7.o ABSOLUTE
    ../clib/microlib/printf/printf.c         0x00000000   Number         0  printf6.o ABSOLUTE
    ../clib/microlib/printf/printf.c         0x00000000   Number         0  printf5.o ABSOLUTE
    ../clib/microlib/printf/printf.c         0x00000000   Number         0  printf4.o ABSOLUTE
    ../clib/microlib/printf/printf.c         0x00000000   Number         0  printf3.o ABSOLUTE
    ../clib/microlib/printf/printf.c         0x00000000   Number         0  printf8.o ABSOLUTE
    ../clib/microlib/printf/stubs.s          0x00000000   Number         0  stubs.o ABSOLUTE
    ../clib/microlib/stdlib/rand.c           0x00000000   Number         0  rand.o ABSOLUTE
    ../clib/microlib/string/memcpy.c         0x00000000   Number         0  memcpyb.o ABSOLUTE
    ../clib/microlib/string/memcpy.c         0x00000000   Number         0  memcpya.o ABSOLUTE
    ../clib/microlib/string/memset.c         0x00000000   Number         0  memseta.o ABSOLUTE
    ../clib/microlib/stubs.s                 0x00000000   Number         0  useno.o ABSOLUTE
    ../clib/microlib/stubs.s                 0x00000000   Number         0  iusefp.o ABSOLUTE
    ../fplib/microlib/d2f.c                  0x00000000   Number         0  d2f.o ABSOLUTE
    ../fplib/microlib/f2d.c                  0x00000000   Number         0  f2d.o ABSOLUTE
    ../fplib/microlib/fpadd.c                0x00000000   Number         0  dadd.o ABSOLUTE
    ../fplib/microlib/fpdiv.c                0x00000000   Number         0  ddiv.o ABSOLUTE
    ../fplib/microlib/fpepilogue.c           0x00000000   Number         0  depilogue.o ABSOLUTE
    ../fplib/microlib/fpepilogue.c           0x00000000   Number         0  fepilogue.o ABSOLUTE
    ../fplib/microlib/fpfix.c                0x00000000   Number         0  dfixui.o ABSOLUTE
    ../fplib/microlib/fpfix.c                0x00000000   Number         0  dfixul.o ABSOLUTE
    ../fplib/microlib/fpflt.c                0x00000000   Number         0  dfltui.o ABSOLUTE
    ../fplib/microlib/fpmul.c                0x00000000   Number         0  dmul.o ABSOLUTE
    ..\Crypto_Sources_Files\crypto.c         0x00000000   Number         0  crypto.o ABSOLUTE
    ..\Libirary\FATFS\diskio.c               0x00000000   Number         0  diskio.o ABSOLUTE
    ..\Libirary\FATFS\ff.c                   0x00000000   Number         0  ff.o ABSOLUTE
    ..\Libirary\FATFS\unicode.c              0x00000000   Number         0  unicode.o ABSOLUTE
    ..\Libirary\FreeRTOS\heap_2.c            0x00000000   Number         0  heap_2.o ABSOLUTE
    ..\Libirary\FreeRTOS\list.c              0x00000000   Number         0  list.o ABSOLUTE
    ..\Libirary\FreeRTOS\port.c              0x00000000   Number         0  port.o ABSOLUTE
    ..\Libirary\FreeRTOS\queue.c             0x00000000   Number         0  queue.o ABSOLUTE
    ..\Libirary\FreeRTOS\tasks.c             0x00000000   Number         0  tasks.o ABSOLUTE
    ..\Libirary\STM32_FWLIB\src\misc.c       0x00000000   Number         0  misc.o ABSOLUTE
    ..\Libirary\STM32_FWLIB\src\stm32f4xx_adc.c 0x00000000   Number         0  stm32f4xx_adc.o ABSOLUTE
    ..\Libirary\STM32_FWLIB\src\stm32f4xx_crc.c 0x00000000   Number         0  stm32f4xx_crc.o ABSOLUTE
    ..\Libirary\STM32_FWLIB\src\stm32f4xx_dma.c 0x00000000   Number         0  stm32f4xx_dma.o ABSOLUTE
    ..\Libirary\STM32_FWLIB\src\stm32f4xx_exti.c 0x00000000   Number         0  stm32f4xx_exti.o ABSOLUTE
    ..\Libirary\STM32_FWLIB\src\stm32f4xx_flash.c 0x00000000   Number         0  stm32f4xx_flash.o ABSOLUTE
    ..\Libirary\STM32_FWLIB\src\stm32f4xx_gpio.c 0x00000000   Number         0  stm32f4xx_gpio.o ABSOLUTE
    ..\Libirary\STM32_FWLIB\src\stm32f4xx_i2c.c 0x00000000   Number         0  stm32f4xx_i2c.o ABSOLUTE
    ..\Libirary\STM32_FWLIB\src\stm32f4xx_iwdg.c 0x00000000   Number         0  stm32f4xx_iwdg.o ABSOLUTE
    ..\Libirary\STM32_FWLIB\src\stm32f4xx_pwr.c 0x00000000   Number         0  stm32f4xx_pwr.o ABSOLUTE
    ..\Libirary\STM32_FWLIB\src\stm32f4xx_rcc.c 0x00000000   Number         0  stm32f4xx_rcc.o ABSOLUTE
    ..\Libirary\STM32_FWLIB\src\stm32f4xx_rng.c 0x00000000   Number         0  stm32f4xx_rng.o ABSOLUTE
    ..\Libirary\STM32_FWLIB\src\stm32f4xx_rtc.c 0x00000000   Number         0  stm32f4xx_rtc.o ABSOLUTE
    ..\Libirary\STM32_FWLIB\src\stm32f4xx_sdio.c 0x00000000   Number         0  stm32f4xx_sdio.o ABSOLUTE
    ..\Libirary\STM32_FWLIB\src\stm32f4xx_spi.c 0x00000000   Number         0  stm32f4xx_spi.o ABSOLUTE
    ..\Libirary\STM32_FWLIB\src\stm32f4xx_syscfg.c 0x00000000   Number         0  stm32f4xx_syscfg.o ABSOLUTE
    ..\Libirary\STM32_FWLIB\src\stm32f4xx_tim.c 0x00000000   Number         0  stm32f4xx_tim.o ABSOLUTE
    ..\Libirary\STM32_FWLIB\src\stm32f4xx_usart.c 0x00000000   Number         0  stm32f4xx_usart.o ABSOLUTE
    ..\Libirary\STM32_USBLIB\src\usb_bsp.c   0x00000000   Number         0  usb_bsp.o ABSOLUTE
    ..\Libirary\STM32_USBLIB\src\usb_core.c  0x00000000   Number         0  usb_core.o ABSOLUTE
    ..\Libirary\STM32_USBLIB\src\usb_dcd.c   0x00000000   Number         0  usb_dcd.o ABSOLUTE
    ..\Libirary\STM32_USBLIB\src\usb_dcd_int.c 0x00000000   Number         0  usb_dcd_int.o ABSOLUTE
    ..\Libirary\STM32_USBLIB\src\usbd_core.c 0x00000000   Number         0  usbd_core.o ABSOLUTE
    ..\Libirary\STM32_USBLIB\src\usbd_desc.c 0x00000000   Number         0  usbd_desc.o ABSOLUTE
    ..\Libirary\STM32_USBLIB\src\usbd_ioreq.c 0x00000000   Number         0  usbd_ioreq.o ABSOLUTE
    ..\Libirary\STM32_USBLIB\src\usbd_msc_bot.c 0x00000000   Number         0  usbd_msc_bot.o ABSOLUTE
    ..\Libirary\STM32_USBLIB\src\usbd_msc_core.c 0x00000000   Number         0  usbd_msc_core.o ABSOLUTE
    ..\Libirary\STM32_USBLIB\src\usbd_msc_data.c 0x00000000   Number         0  usbd_msc_data.o ABSOLUTE
    ..\Libirary\STM32_USBLIB\src\usbd_msc_scsi.c 0x00000000   Number         0  usbd_msc_scsi.o ABSOLUTE
    ..\Libirary\STM32_USBLIB\src\usbd_req.c  0x00000000   Number         0  usbd_req.o ABSOLUTE
    ..\Libirary\STM32_USBLIB\src\usbd_storage.c 0x00000000   Number         0  usbd_storage.o ABSOLUTE
    ..\Libirary\STM32_USBLIB\src\usbd_usr.c  0x00000000   Number         0  usbd_usr.o ABSOLUTE
    ..\Libirary\startup_stm32f411xe.s        0x00000000   Number         0  startup_stm32f411xe.o ABSOLUTE
    ..\Sourcecode\BSP\src\bsp_Adc.c          0x00000000   Number         0  bsp_adc.o ABSOLUTE
    ..\Sourcecode\BSP\src\bsp_AesEcb256.c    0x00000000   Number         0  bsp_aesecb256.o ABSOLUTE
    ..\Sourcecode\BSP\src\bsp_Delay.c        0x00000000   Number         0  bsp_delay.o ABSOLUTE
    ..\Sourcecode\BSP\src\bsp_FileSystem.c   0x00000000   Number         0  bsp_filesystem.o ABSOLUTE
    ..\Sourcecode\BSP\src\bsp_Gpio.c         0x00000000   Number         0  bsp_gpio.o ABSOLUTE
    ..\Sourcecode\BSP\src\bsp_MD5.c          0x00000000   Number         0  bsp_md5.o ABSOLUTE
    ..\Sourcecode\BSP\src\bsp_RTC.c          0x00000000   Number         0  bsp_rtc.o ABSOLUTE
    ..\Sourcecode\BSP\src\bsp_Sdio.c         0x00000000   Number         0  bsp_sdio.o ABSOLUTE
    ..\Sourcecode\BSP\src\bsp_Usart.c        0x00000000   Number         0  bsp_usart.o ABSOLUTE
    ..\Sourcecode\Task_Communicate_protocol.c 0x00000000   Number         0  task_communicate_protocol.o ABSOLUTE
    ..\Sourcecode\Task_HardwareControl.c     0x00000000   Number         0  task_hardwarecontrol.o ABSOLUTE
    ..\Sourcecode\main.c                     0x00000000   Number         0  main.o ABSOLUTE
    ..\Sourcecode\stm32f4xx_it.c             0x00000000   Number         0  stm32f4xx_it.o ABSOLUTE
    ..\Sourcecode\system_stm32f4xx.c         0x00000000   Number         0  system_stm32f4xx.o ABSOLUTE
    ..\\Crypto_Sources_Files\\crypto.c       0x00000000   Number         0  crypto.o ABSOLUTE
    ..\\Libirary\\FATFS\\diskio.c            0x00000000   Number         0  diskio.o ABSOLUTE
    ..\\Libirary\\FreeRTOS\\port.c           0x00000000   Number         0  port.o ABSOLUTE
    ..\\Libirary\\STM32_FWLIB\\src\\misc.c   0x00000000   Number         0  misc.o ABSOLUTE
    ..\\Libirary\\STM32_FWLIB\\src\\stm32f4xx_adc.c 0x00000000   Number         0  stm32f4xx_adc.o ABSOLUTE
    ..\\Libirary\\STM32_FWLIB\\src\\stm32f4xx_crc.c 0x00000000   Number         0  stm32f4xx_crc.o ABSOLUTE
    ..\\Libirary\\STM32_FWLIB\\src\\stm32f4xx_dma.c 0x00000000   Number         0  stm32f4xx_dma.o ABSOLUTE
    ..\\Libirary\\STM32_FWLIB\\src\\stm32f4xx_exti.c 0x00000000   Number         0  stm32f4xx_exti.o ABSOLUTE
    ..\\Libirary\\STM32_FWLIB\\src\\stm32f4xx_flash.c 0x00000000   Number         0  stm32f4xx_flash.o ABSOLUTE
    ..\\Libirary\\STM32_FWLIB\\src\\stm32f4xx_gpio.c 0x00000000   Number         0  stm32f4xx_gpio.o ABSOLUTE
    ..\\Libirary\\STM32_FWLIB\\src\\stm32f4xx_i2c.c 0x00000000   Number         0  stm32f4xx_i2c.o ABSOLUTE
    ..\\Libirary\\STM32_FWLIB\\src\\stm32f4xx_iwdg.c 0x00000000   Number         0  stm32f4xx_iwdg.o ABSOLUTE
    ..\\Libirary\\STM32_FWLIB\\src\\stm32f4xx_pwr.c 0x00000000   Number         0  stm32f4xx_pwr.o ABSOLUTE
    ..\\Libirary\\STM32_FWLIB\\src\\stm32f4xx_rcc.c 0x00000000   Number         0  stm32f4xx_rcc.o ABSOLUTE
    ..\\Libirary\\STM32_FWLIB\\src\\stm32f4xx_rng.c 0x00000000   Number         0  stm32f4xx_rng.o ABSOLUTE
    ..\\Libirary\\STM32_FWLIB\\src\\stm32f4xx_rtc.c 0x00000000   Number         0  stm32f4xx_rtc.o ABSOLUTE
    ..\\Libirary\\STM32_FWLIB\\src\\stm32f4xx_sdio.c 0x00000000   Number         0  stm32f4xx_sdio.o ABSOLUTE
    ..\\Libirary\\STM32_FWLIB\\src\\stm32f4xx_spi.c 0x00000000   Number         0  stm32f4xx_spi.o ABSOLUTE
    ..\\Libirary\\STM32_FWLIB\\src\\stm32f4xx_syscfg.c 0x00000000   Number         0  stm32f4xx_syscfg.o ABSOLUTE
    ..\\Libirary\\STM32_FWLIB\\src\\stm32f4xx_tim.c 0x00000000   Number         0  stm32f4xx_tim.o ABSOLUTE
    ..\\Libirary\\STM32_FWLIB\\src\\stm32f4xx_usart.c 0x00000000   Number         0  stm32f4xx_usart.o ABSOLUTE
    ..\\Libirary\\STM32_USBLIB\\src\\usb_bsp.c 0x00000000   Number         0  usb_bsp.o ABSOLUTE
    ..\\Libirary\\STM32_USBLIB\\src\\usb_core.c 0x00000000   Number         0  usb_core.o ABSOLUTE
    ..\\Libirary\\STM32_USBLIB\\src\\usb_dcd.c 0x00000000   Number         0  usb_dcd.o ABSOLUTE
    ..\\Libirary\\STM32_USBLIB\\src\\usb_dcd_int.c 0x00000000   Number         0  usb_dcd_int.o ABSOLUTE
    ..\\Libirary\\STM32_USBLIB\\src\\usbd_core.c 0x00000000   Number         0  usbd_core.o ABSOLUTE
    ..\\Libirary\\STM32_USBLIB\\src\\usbd_desc.c 0x00000000   Number         0  usbd_desc.o ABSOLUTE
    ..\\Libirary\\STM32_USBLIB\\src\\usbd_ioreq.c 0x00000000   Number         0  usbd_ioreq.o ABSOLUTE
    ..\\Libirary\\STM32_USBLIB\\src\\usbd_msc_bot.c 0x00000000   Number         0  usbd_msc_bot.o ABSOLUTE
    ..\\Libirary\\STM32_USBLIB\\src\\usbd_msc_core.c 0x00000000   Number         0  usbd_msc_core.o ABSOLUTE
    ..\\Libirary\\STM32_USBLIB\\src\\usbd_msc_data.c 0x00000000   Number         0  usbd_msc_data.o ABSOLUTE
    ..\\Libirary\\STM32_USBLIB\\src\\usbd_msc_scsi.c 0x00000000   Number         0  usbd_msc_scsi.o ABSOLUTE
    ..\\Libirary\\STM32_USBLIB\\src\\usbd_req.c 0x00000000   Number         0  usbd_req.o ABSOLUTE
    ..\\Libirary\\STM32_USBLIB\\src\\usbd_storage.c 0x00000000   Number         0  usbd_storage.o ABSOLUTE
    ..\\Libirary\\STM32_USBLIB\\src\\usbd_usr.c 0x00000000   Number         0  usbd_usr.o ABSOLUTE
    ..\\Sourcecode\\BSP\\src\\bsp_Adc.c      0x00000000   Number         0  bsp_adc.o ABSOLUTE
    ..\\Sourcecode\\BSP\\src\\bsp_AesEcb256.c 0x00000000   Number         0  bsp_aesecb256.o ABSOLUTE
    ..\\Sourcecode\\BSP\\src\\bsp_Delay.c    0x00000000   Number         0  bsp_delay.o ABSOLUTE
    ..\\Sourcecode\\BSP\\src\\bsp_FileSystem.c 0x00000000   Number         0  bsp_filesystem.o ABSOLUTE
    ..\\Sourcecode\\BSP\\src\\bsp_Gpio.c     0x00000000   Number         0  bsp_gpio.o ABSOLUTE
    ..\\Sourcecode\\BSP\\src\\bsp_MD5.c      0x00000000   Number         0  bsp_md5.o ABSOLUTE
    ..\\Sourcecode\\BSP\\src\\bsp_RTC.c      0x00000000   Number         0  bsp_rtc.o ABSOLUTE
    ..\\Sourcecode\\BSP\\src\\bsp_Sdio.c     0x00000000   Number         0  bsp_sdio.o ABSOLUTE
    ..\\Sourcecode\\BSP\\src\\bsp_Usart.c    0x00000000   Number         0  bsp_usart.o ABSOLUTE
    ..\\Sourcecode\\Task_Communicate_protocol.c 0x00000000   Number         0  task_communicate_protocol.o ABSOLUTE
    ..\\Sourcecode\\Task_HardwareControl.c   0x00000000   Number         0  task_hardwarecontrol.o ABSOLUTE
    ..\\Sourcecode\\main.c                   0x00000000   Number         0  main.o ABSOLUTE
    ..\\Sourcecode\\stm32f4xx_it.c           0x00000000   Number         0  stm32f4xx_it.o ABSOLUTE
    ..\\Sourcecode\\system_stm32f4xx.c       0x00000000   Number         0  system_stm32f4xx.o ABSOLUTE
    cdrcmple.s                               0x00000000   Number         0  cdrcmple.o ABSOLUTE
    dc.s                                     0x00000000   Number         0  dc.o ABSOLUTE
    handlers.s                               0x00000000   Number         0  handlers.o ABSOLUTE
    init.s                                   0x00000000   Number         0  init.o ABSOLUTE
    RESET                                    0x08020000   Section      408  startup_stm32f411xe.o(RESET)
    .ARM.Collect$$$$00000000                 0x08020198   Section        0  entry.o(.ARM.Collect$$$$00000000)
    .ARM.Collect$$$$00000001                 0x08020198   Section        4  entry2.o(.ARM.Collect$$$$00000001)
    .ARM.Collect$$$$00000004                 0x0802019c   Section        4  entry5.o(.ARM.Collect$$$$00000004)
    .ARM.Collect$$$$00000008                 0x080201a0   Section        0  entry7b.o(.ARM.Collect$$$$00000008)
    .ARM.Collect$$$$0000000A                 0x080201a0   Section        0  entry8b.o(.ARM.Collect$$$$0000000A)
    .ARM.Collect$$$$0000000B                 0x080201a0   Section        8  entry9a.o(.ARM.Collect$$$$0000000B)
    .ARM.Collect$$$$0000000D                 0x080201a8   Section        0  entry10a.o(.ARM.Collect$$$$0000000D)
    .ARM.Collect$$$$0000000F                 0x080201a8   Section        0  entry11a.o(.ARM.Collect$$$$0000000F)
    .ARM.Collect$$$$00002712                 0x080201a8   Section        4  entry2.o(.ARM.Collect$$$$00002712)
    __lit__00000000                          0x080201a8   Data           4  entry2.o(.ARM.Collect$$$$00002712)
    .emb_text                                0x080201ac   Section      198  port.o(.emb_text)
    $v0                                      0x080201ac   Number         0  port.o(.emb_text)
    .text                                    0x08020274   Section        0  main.o(.text)
    .text                                    0x08020408   Section        0  stm32f4xx_it.o(.text)
    .text                                    0x0802042c   Section        0  task_communicate_protocol.o(.text)
    .text                                    0x08021af4   Section        0  system_stm32f4xx.o(.text)
    .text                                    0x08021ce8   Section        0  task_hardwarecontrol.o(.text)
    NVIC_DisableIRQ                          0x08022fa9   Thumb Code    18  task_hardwarecontrol.o(.text)
    .text                                    0x08022fe8   Section        0  bsp_adc.o(.text)
    .text                                    0x080233c0   Section        0  bsp_aesecb256.o(.text)
    .text                                    0x080234ac   Section        0  bsp_delay.o(.text)
    .text                                    0x080234f8   Section        0  bsp_filesystem.o(.text)
    __set_PRIMASK                            0x080238c1   Thumb Code     6  bsp_filesystem.o(.text)
    .text                                    0x08023930   Section        0  bsp_sdio.o(.text)
    .text                                    0x080256bc   Section        0  bsp_usart.o(.text)
    .text                                    0x08025be4   Section        0  bsp_gpio.o(.text)
    .text                                    0x08026024   Section       36  startup_stm32f411xe.o(.text)
    $v0                                      0x08026024   Number         0  startup_stm32f411xe.o(.text)
    .text                                    0x08026048   Section        0  bsp_rtc.o(.text)
    .text                                    0x08026140   Section        0  bsp_md5.o(.text)
    .text                                    0x080261e4   Section        0  heap_2.o(.text)
    prvHeapInit                              0x080261e5   Thumb Code    42  heap_2.o(.text)
    .text                                    0x08026308   Section        0  list.o(.text)
    .text                                    0x0802639c   Section        0  port.o(.text)
    prvTaskExitError                         0x0802639d   Thumb Code     8  port.o(.text)
    .text                                    0x08026498   Section        0  queue.o(.text)
    prvUnlockQueue                           0x0802654f   Thumb Code   126  queue.o(.text)
    prvIsQueueFull                           0x080265cd   Thumb Code    30  queue.o(.text)
    prvCopyDataToQueue                       0x080265eb   Thumb Code   110  queue.o(.text)
    prvIsQueueEmpty                          0x080267b5   Thumb Code    26  queue.o(.text)
    prvCopyDataFromQueue                     0x080267cf   Thumb Code    42  queue.o(.text)
    .text                                    0x08026a48   Section        0  tasks.o(.text)
    prvInitialiseTaskLists                   0x08026a49   Thumb Code    70  tasks.o(.text)
    prvInitialiseTCBVariables                0x08026a8f   Thumb Code    84  tasks.o(.text)
    prvAllocateTCBAndStack                   0x08026ae3   Thumb Code    46  tasks.o(.text)
    prvResetNextTaskUnblockTime              0x08026bf3   Thumb Code    42  tasks.o(.text)
    prvAddCurrentTaskToDelayedList           0x08026ea5   Thumb Code    62  tasks.o(.text)
    prvTaskIsTaskSuspended                   0x08027181   Thumb Code    56  tasks.o(.text)
    prvDeleteTCB                             0x080272bd   Thumb Code    18  tasks.o(.text)
    prvCheckTasksWaitingTermination          0x080272cf   Thumb Code    86  tasks.o(.text)
    prvIdleTask                              0x08027325   Thumb Code    20  tasks.o(.text)
    .text                                    0x080275f0   Section        0  usb_bsp.o(.text)
    .text                                    0x080276c8   Section        0  usb_core.o(.text)
    USB_OTG_EnableCommonInt                  0x080276c9   Thumb Code    52  usb_core.o(.text)
    USB_OTG_CoreReset                        0x080276fd   Thumb Code   108  usb_core.o(.text)
    .text                                    0x08028e4e   Section        0  usb_dcd.o(.text)
    .text                                    0x080291cc   Section        0  usb_dcd_int.o(.text)
    DCD_IsoOUTIncomplete_ISR                 0x080291cd   Thumb Code    40  usb_dcd_int.o(.text)
    DCD_IsoINIncomplete_ISR                  0x080291f5   Thumb Code    40  usb_dcd_int.o(.text)
    DCD_HandleEnumDone_ISR                   0x0802921d   Thumb Code   102  usb_dcd_int.o(.text)
    DCD_HandleUsbReset_ISR                   0x08029283   Thumb Code   254  usb_dcd_int.o(.text)
    DCD_HandleRxStatusQueueLevel_ISR         0x08029381   Thumb Code   176  usb_dcd_int.o(.text)
    DCD_HandleSof_ISR                        0x08029431   Thumb Code    38  usb_dcd_int.o(.text)
    DCD_HandleUSBSuspend_ISR                 0x08029457   Thumb Code   158  usb_dcd_int.o(.text)
    DCD_HandleResume_ISR                     0x080294f5   Thumb Code   100  usb_dcd_int.o(.text)
    DCD_WriteEmptyTxFifo                     0x08029559   Thumb Code   154  usb_dcd_int.o(.text)
    DCD_ReadDevInEP                          0x080295f3   Thumb Code    40  usb_dcd_int.o(.text)
    DCD_HandleInEP_ISR                       0x0802961b   Thumb Code   320  usb_dcd_int.o(.text)
    DCD_HandleOutEP_ISR                      0x0802975b   Thumb Code   252  usb_dcd_int.o(.text)
    .text                                    0x0802993c   Section        0  usbd_core.o(.text)
    USBD_SetupStage                          0x08029985   Thumb Code    84  usbd_core.o(.text)
    USBD_DataOutStage                        0x080299d9   Thumb Code   150  usbd_core.o(.text)
    USBD_RunTestMode                         0x08029a6f   Thumb Code    14  usbd_core.o(.text)
    USBD_DataInStage                         0x08029a7d   Thumb Code   208  usbd_core.o(.text)
    USBD_Reset                               0x08029b4d   Thumb Code    50  usbd_core.o(.text)
    USBD_Resume                              0x08029b7f   Thumb Code    30  usbd_core.o(.text)
    USBD_Suspend                             0x08029b9d   Thumb Code    32  usbd_core.o(.text)
    USBD_SOF                                 0x08029bbd   Thumb Code    26  usbd_core.o(.text)
    USBD_IsoINIncomplete                     0x08029c0b   Thumb Code    18  usbd_core.o(.text)
    USBD_IsoOUTIncomplete                    0x08029c1d   Thumb Code    18  usbd_core.o(.text)
    .text                                    0x08029c34   Section        0  usbd_desc.o(.text)
    .text                                    0x08029d70   Section        0  usbd_ioreq.o(.text)
    .text                                    0x08029e64   Section        0  usbd_msc_bot.o(.text)
    MSC_BOT_SendData                         0x08029f37   Thumb Code    60  usbd_msc_bot.o(.text)
    MSC_BOT_Abort                            0x08029f73   Thumb Code    60  usbd_msc_bot.o(.text)
    MSC_BOT_CBW_Decode                       0x08029faf   Thumb Code   178  usbd_msc_bot.o(.text)
    .text                                    0x0802a0f8   Section        0  usbd_msc_core.o(.text)
    .text                                    0x0802a29c   Section        0  usbd_msc_scsi.o(.text)
    SCSI_CheckAddressRange                   0x0802a2cf   Thumb Code    38  usbd_msc_scsi.o(.text)
    SCSI_Verify10                            0x0802a2f5   Thumb Code    68  usbd_msc_scsi.o(.text)
    SCSI_ProcessWrite                        0x0802a339   Thumb Code   176  usbd_msc_scsi.o(.text)
    SCSI_Write10                             0x0802a3e9   Thumb Code   274  usbd_msc_scsi.o(.text)
    SCSI_ProcessRead                         0x0802a4fb   Thumb Code   150  usbd_msc_scsi.o(.text)
    SCSI_Read10                              0x0802a591   Thumb Code   212  usbd_msc_scsi.o(.text)
    SCSI_ReadCapacity10                      0x0802a665   Thumb Code   172  usbd_msc_scsi.o(.text)
    SCSI_ReadFormatCapacity                  0x0802a711   Thumb Code   122  usbd_msc_scsi.o(.text)
    SCSI_ModeSense10                         0x0802a78b   Thumb Code    34  usbd_msc_scsi.o(.text)
    SCSI_ModeSense6                          0x0802a7ad   Thumb Code    34  usbd_msc_scsi.o(.text)
    SCSI_StartStopUnit                       0x0802a7cf   Thumb Code    10  usbd_msc_scsi.o(.text)
    SCSI_Inquiry                             0x0802a7d9   Thumb Code    70  usbd_msc_scsi.o(.text)
    SCSI_RequestSense                        0x0802a81f   Thumb Code   132  usbd_msc_scsi.o(.text)
    SCSI_TestUnitReady                       0x0802a8a3   Thumb Code    68  usbd_msc_scsi.o(.text)
    .text                                    0x0802a9ec   Section        0  usbd_req.o(.text)
    USBD_ClrFeature                          0x0802aa0b   Thumb Code    72  usbd_req.o(.text)
    USBD_SetFeature                          0x0802aa53   Thumb Code   160  usbd_req.o(.text)
    USBD_GetStatus                           0x0802aaf3   Thumb Code    74  usbd_req.o(.text)
    USBD_GetConfig                           0x0802ab3d   Thumb Code    78  usbd_req.o(.text)
    USBD_SetConfig                           0x0802ab8b   Thumb Code   204  usbd_req.o(.text)
    USBD_SetAddress                          0x0802ac57   Thumb Code    92  usbd_req.o(.text)
    USBD_GetDescriptor                       0x0802acb3   Thumb Code   290  usbd_req.o(.text)
    USBD_GetLen                              0x0802b043   Thumb Code    20  usbd_req.o(.text)
    .text                                    0x0802b0ac   Section        0  usbd_storage.o(.text)
    .text                                    0x0802b1ac   Section        0  usbd_usr.o(.text)
    .text                                    0x0802b200   Section        0  diskio.o(.text)
    .text                                    0x0802b330   Section        0  ff.o(.text)
    mem_cpy                                  0x0802b331   Thumb Code    46  ff.o(.text)
    mem_set                                  0x0802b35f   Thumb Code    20  ff.o(.text)
    mem_cmp                                  0x0802b373   Thumb Code    38  ff.o(.text)
    chk_chr                                  0x0802b399   Thumb Code    20  ff.o(.text)
    sync_window                              0x0802b3ad   Thumb Code    76  ff.o(.text)
    move_window                              0x0802b3f9   Thumb Code    50  ff.o(.text)
    sync_fs                                  0x0802b42b   Thumb Code   110  ff.o(.text)
    remove_chain                             0x0802b68d   Thumb Code   108  ff.o(.text)
    create_chain                             0x0802b6f9   Thumb Code   214  ff.o(.text)
    clmt_clust                               0x0802b7cf   Thumb Code    50  ff.o(.text)
    dir_sdi                                  0x0802b801   Thumb Code   168  ff.o(.text)
    dir_next                                 0x0802b8a9   Thumb Code   272  ff.o(.text)
    dir_alloc                                0x0802b9b9   Thumb Code    92  ff.o(.text)
    ld_clust                                 0x0802ba15   Thumb Code    18  ff.o(.text)
    st_clust                                 0x0802ba27   Thumb Code     8  ff.o(.text)
    cmp_lfn                                  0x0802ba2f   Thumb Code   124  ff.o(.text)
    pick_lfn                                 0x0802baab   Thumb Code   100  ff.o(.text)
    fit_lfn                                  0x0802bb0f   Thumb Code    92  ff.o(.text)
    gen_numname                              0x0802bb6b   Thumb Code   172  ff.o(.text)
    sum_sfn                                  0x0802bc17   Thumb Code    32  ff.o(.text)
    dir_find                                 0x0802bc37   Thumb Code   222  ff.o(.text)
    dir_read                                 0x0802bd15   Thumb Code   196  ff.o(.text)
    dir_register                             0x0802bdd9   Thumb Code   308  ff.o(.text)
    dir_remove                               0x0802bf0d   Thumb Code   106  ff.o(.text)
    get_fileinfo                             0x0802bf77   Thumb Code   224  ff.o(.text)
    create_name                              0x0802c057   Thumb Code   534  ff.o(.text)
    follow_path                              0x0802c26d   Thumb Code   144  ff.o(.text)
    get_ldnumber                             0x0802c2fd   Thumb Code    74  ff.o(.text)
    check_fs                                 0x0802c347   Thumb Code    84  ff.o(.text)
    find_volume                              0x0802c39b   Thumb Code   664  ff.o(.text)
    validate                                 0x0802c633   Thumb Code    54  ff.o(.text)
    putc_bfd                                 0x0802da8b   Thumb Code    68  ff.o(.text)
    .text                                    0x0802ddd8   Section        0  unicode.o(.text)
    .text                                    0x0802de58   Section        0  misc.o(.text)
    .text                                    0x0802df38   Section        0  stm32f4xx_adc.o(.text)
    .text                                    0x0802e39c   Section        0  stm32f4xx_dma.o(.text)
    .text                                    0x0802e744   Section        0  stm32f4xx_exti.o(.text)
    .text                                    0x0802e854   Section        0  stm32f4xx_flash.o(.text)
    .text                                    0x0802eee8   Section        0  stm32f4xx_gpio.o(.text)
    .text                                    0x0802f17c   Section        0  stm32f4xx_iwdg.o(.text)
    .text                                    0x0802f1bc   Section        0  stm32f4xx_pwr.o(.text)
    .text                                    0x0802f328   Section        0  stm32f4xx_rcc.o(.text)
    .text                                    0x0802f924   Section        0  stm32f4xx_rtc.o(.text)
    RTC_ByteToBcd2                           0x0802fbb7   Thumb Code    28  stm32f4xx_rtc.o(.text)
    RTC_Bcd2ToByte                           0x0802fbd3   Thumb Code    22  stm32f4xx_rtc.o(.text)
    .text                                    0x0803068c   Section        0  stm32f4xx_sdio.o(.text)
    .text                                    0x08030868   Section        0  stm32f4xx_syscfg.o(.text)
    .text                                    0x080308fc   Section        0  stm32f4xx_tim.o(.text)
    TI4_Config                               0x0803109b   Thumb Code    80  stm32f4xx_tim.o(.text)
    TI3_Config                               0x080310fd   Thumb Code    72  stm32f4xx_tim.o(.text)
    TI2_Config                               0x0803115f   Thumb Code    90  stm32f4xx_tim.o(.text)
    TI1_Config                               0x080311cb   Thumb Code    58  stm32f4xx_tim.o(.text)
    .text                                    0x080315a0   Section        0  stm32f4xx_usart.o(.text)
    .text                                    0x080319f4   Section        0  ldiv.o(.text)
    .text                                    0x08031a50   Section        0  rand.o(.text)
    .text                                    0x08031a74   Section        0  memcpya.o(.text)
    .text                                    0x08031a98   Section        0  memseta.o(.text)
    .text                                    0x08031abc   Section        0  dadd.o(.text)
    .text                                    0x08031c0a   Section        0  dmul.o(.text)
    .text                                    0x08031cee   Section        0  ddiv.o(.text)
    .text                                    0x08031dcc   Section        0  dfltui.o(.text)
    .text                                    0x08031de6   Section        0  dfixui.o(.text)
    .text                                    0x08031e18   Section        0  f2d.o(.text)
    .text                                    0x08031e40   Section       40  cdrcmple.o(.text)
    .text                                    0x08031e68   Section        0  d2f.o(.text)
    .text                                    0x08031ea0   Section        0  uldiv.o(.text)
    .text                                    0x08031f02   Section        0  llshl.o(.text)
    .text                                    0x08031f20   Section        0  llushr.o(.text)
    .text                                    0x08031f40   Section        0  llsshr.o(.text)
    .text                                    0x08031f64   Section        0  fepilogue.o(.text)
    .text                                    0x08031f64   Section        0  iusefp.o(.text)
    .text                                    0x08031fd2   Section        0  depilogue.o(.text)
    .text                                    0x08032088   Section       36  init.o(.text)
    .text                                    0x080320ac   Section        0  __dczerorl2.o(.text)
    i.AES128_decrypt                         0x08032104   Section        0  crypto.o(i.AES128_decrypt)
    i.AES128_encrypt                         0x08032408   Section        0  crypto.o(i.AES128_encrypt)
    i.AES128_keyschedule_dec                 0x0803271c   Section        0  crypto.o(i.AES128_keyschedule_dec)
    i.AES128_keyschedule_enc                 0x08032850   Section        0  crypto.o(i.AES128_keyschedule_enc)
    i.AES192_decrypt                         0x080328c4   Section        0  crypto.o(i.AES192_decrypt)
    i.AES192_encrypt                         0x08032bc4   Section        0  crypto.o(i.AES192_encrypt)
    i.AES192_keyschedule_dec                 0x08032ed8   Section        0  crypto.o(i.AES192_keyschedule_dec)
    i.AES192_keyschedule_enc                 0x08032ff8   Section        0  crypto.o(i.AES192_keyschedule_enc)
    i.AES256_decrypt                         0x08033090   Section        0  crypto.o(i.AES256_decrypt)
    i.AES256_encrypt                         0x08033394   Section        0  crypto.o(i.AES256_encrypt)
    i.AES256_keyschedule_dec                 0x080336ac   Section        0  crypto.o(i.AES256_keyschedule_dec)
    i.AES256_keyschedule_enc                 0x080337cc   Section        0  crypto.o(i.AES256_keyschedule_enc)
    i.AES_ECB_Decrypt_Append                 0x080338a8   Section        0  crypto.o(i.AES_ECB_Decrypt_Append)
    i.AES_ECB_Decrypt_Finish                 0x0803396c   Section        0  crypto.o(i.AES_ECB_Decrypt_Finish)
    i.AES_ECB_Decrypt_Init                   0x08033986   Section        0  crypto.o(i.AES_ECB_Decrypt_Init)
    i.AES_ECB_Encrypt_Append                 0x0803398c   Section        0  crypto.o(i.AES_ECB_Encrypt_Append)
    i.AES_ECB_Encrypt_Finish                 0x08033a50   Section        0  crypto.o(i.AES_ECB_Encrypt_Finish)
    i.AES_ECB_Encrypt_Init                   0x08033a6a   Section        0  crypto.o(i.AES_ECB_Encrypt_Init)
    i.AESstdInit                             0x08033a70   Section        0  crypto.o(i.AESstdInit)
    AESstdInit                               0x08033a71   Thumb Code   420  crypto.o(i.AESstdInit)
    i.Crypto_DeInit                          0x08033c14   Section        0  crypto.o(i.Crypto_DeInit)
    i.MD5_Append                             0x08033c1c   Section        0  crypto.o(i.MD5_Append)
    i.MD5_Finish                             0x08033c46   Section        0  crypto.o(i.MD5_Finish)
    i.MD5_Init                               0x08033cd8   Section        0  crypto.o(i.MD5_Init)
    i.__0printf$2                            0x08033d14   Section        0  printf2.o(i.__0printf$2)
    i.__scatterload_copy                     0x08033d34   Section       14  handlers.o(i.__scatterload_copy)
    i.__scatterload_null                     0x08033d42   Section        2  handlers.o(i.__scatterload_null)
    i.__scatterload_zeroinit                 0x08033d44   Section       14  handlers.o(i.__scatterload_zeroinit)
    i._printf_core                           0x08033d52   Section        0  printf2.o(i._printf_core)
    _printf_core                             0x08033d53   Thumb Code   214  printf2.o(i._printf_core)
    i.crl_u_MD5_Finish                       0x08033e28   Section        0  crypto.o(i.crl_u_MD5_Finish)
    i.crl_u_MD5_Update                       0x08033f00   Section        0  crypto.o(i.crl_u_MD5_Update)
    i.md5_process                            0x08033f98   Section        0  crypto.o(i.md5_process)
    md5_process                              0x08033f99   Thumb Code  1946  crypto.o(i.md5_process)
    .constdata                               0x080347a8   Section      512  task_communicate_protocol.o(.constdata)
    .constdata                               0x080349a8   Section       24  bsp_md5.o(.constdata)
    .constdata                               0x080349c0   Section       23  usbd_msc_data.o(.constdata)
    .constdata                               0x080349d8   Section      186  ff.o(.constdata)
    ExCvt                                    0x080349d8   Data         128  ff.o(.constdata)
    LfnOfs                                   0x08034a58   Data          13  ff.o(.constdata)
    vst                                      0x08034a66   Data          22  ff.o(.constdata)
    cst                                      0x08034a7c   Data          22  ff.o(.constdata)
    .constdata                               0x08034a92   Section     1216  unicode.o(.constdata)
    Tbl                                      0x08034a92   Data         256  unicode.o(.constdata)
    tbl_lower                                0x08034b92   Data         480  unicode.o(.constdata)
    tbl_upper                                0x08034d72   Data         480  unicode.o(.constdata)
    .constdata                               0x08034f54   Section     6040  crypto.o(.constdata)
    table_reduction8                         0x0803597c   Data         512  crypto.o(.constdata)
    table_reduction4                         0x08035b7c   Data          32  crypto.o(.constdata)
    pad                                      0x0803650c   Data          64  crypto.o(.constdata)
    .data                                    0x20000000   Section       52  main.o(.data)
    .data                                    0x20000034   Section     2233  task_communicate_protocol.o(.data)
    Key_index                                0x200008e8   Data           1  task_communicate_protocol.o(.data)
    Buffer_index                             0x200008ea   Data           2  task_communicate_protocol.o(.data)
    mx                                       0x200008ec   Data           1  task_communicate_protocol.o(.data)
    .data                                    0x200008f0   Section       20  system_stm32f4xx.o(.data)
    .data                                    0x20000904   Section      203  task_hardwarecontrol.o(.data)
    .data                                    0x200009d0   Section      744  bsp_adc.o(.data)
    .data                                    0x20000cb8   Section       32  bsp_aesecb256.o(.data)
    .data                                    0x20000cd8   Section     1120  bsp_filesystem.o(.data)
    .data                                    0x20001138   Section       16  bsp_sdio.o(.data)
    CardType                                 0x20001138   Data           1  bsp_sdio.o(.data)
    RCA                                      0x2000113c   Data           4  bsp_sdio.o(.data)
    DeviceMode                               0x20001140   Data           1  bsp_sdio.o(.data)
    StopCondition                            0x20001141   Data           1  bsp_sdio.o(.data)
    .data                                    0x20001148   Section     2120  bsp_usart.o(.data)
    .data                                    0x20001990   Section        1  bsp_gpio.o(.data)
    .data                                    0x20001991   Section        1  bsp_rtc.o(.data)
    .data                                    0x20001994   Section        8  bsp_md5.o(.data)
    .data                                    0x2000199c   Section       24  heap_2.o(.data)
    xStart                                   0x2000199c   Data           8  heap_2.o(.data)
    xEnd                                     0x200019a4   Data           8  heap_2.o(.data)
    xFreeBytesRemaining                      0x200019ac   Data           4  heap_2.o(.data)
    xHeapHasBeenInitialised                  0x200019b0   Data           4  heap_2.o(.data)
    .data                                    0x200019b4   Section        4  port.o(.data)
    uxCriticalNesting                        0x200019b4   Data           4  port.o(.data)
    .data                                    0x200019b8   Section       56  tasks.o(.data)
    pxDelayedTaskList                        0x200019bc   Data           4  tasks.o(.data)
    pxOverflowDelayedTaskList                0x200019c0   Data           4  tasks.o(.data)
    uxTasksDeleted                           0x200019c4   Data           4  tasks.o(.data)
    uxCurrentNumberOfTasks                   0x200019c8   Data           4  tasks.o(.data)
    xTickCount                               0x200019cc   Data           4  tasks.o(.data)
    uxTopReadyPriority                       0x200019d0   Data           4  tasks.o(.data)
    xSchedulerRunning                        0x200019d4   Data           4  tasks.o(.data)
    uxPendedTicks                            0x200019d8   Data           4  tasks.o(.data)
    xYieldPending                            0x200019dc   Data           4  tasks.o(.data)
    xNumOfOverflows                          0x200019e0   Data           4  tasks.o(.data)
    uxTaskNumber                             0x200019e4   Data           4  tasks.o(.data)
    xNextTaskUnblockTime                     0x200019e8   Data           4  tasks.o(.data)
    uxSchedulerSuspended                     0x200019ec   Data           4  tasks.o(.data)
    .data                                    0x200019f0   Section        3  usb_bsp.o(.data)
    .data                                    0x200019f4   Section       52  usbd_core.o(.data)
    .data                                    0x20001a28   Section       60  usbd_desc.o(.data)
    .data                                    0x20001a64   Section        4  usbd_msc_bot.o(.data)
    .data                                    0x20001a68   Section       78  usbd_msc_core.o(.data)
    USBD_MSC_MaxLun                          0x20001ab4   Data           1  usbd_msc_core.o(.data)
    USBD_MSC_AltSet                          0x20001ab5   Data           1  usbd_msc_core.o(.data)
    .data                                    0x20001ab8   Section       24  usbd_msc_scsi.o(.data)
    .data                                    0x20001ad0   Section       13  usbd_req.o(.data)
    cfgidx                                   0x20001adc   Data           1  usbd_req.o(.data)
    .data                                    0x20001ae0   Section      112  usbd_storage.o(.data)
    .data                                    0x20001b50   Section       32  usbd_usr.o(.data)
    .data                                    0x20001b70   Section       10  ff.o(.data)
    FatFs                                    0x20001b70   Data           8  ff.o(.data)
    Fsid                                     0x20001b78   Data           2  ff.o(.data)
    .data                                    0x20001b7a   Section       16  stm32f4xx_rcc.o(.data)
    APBAHBPrescTable                         0x20001b7a   Data          16  stm32f4xx_rcc.o(.data)
    .data                                    0x20001b8c   Section        4  rand.o(.data)
    _rand_state                              0x20001b8c   Data           4  rand.o(.data)
    .bss                                     0x20001b90   Section     2436  task_communicate_protocol.o(.bss)
    .bss                                     0x20002514   Section      576  task_hardwarecontrol.o(.bss)
    .bss                                     0x20002754   Section     7994  bsp_filesystem.o(.bss)
    .bss                                     0x20004690   Section      704  bsp_sdio.o(.bss)
    CSD_Tab                                  0x200046d4   Data          16  bsp_sdio.o(.bss)
    CID_Tab                                  0x200046e4   Data          16  bsp_sdio.o(.bss)
    .bss                                     0x20004950   Section       40  bsp_usart.o(.bss)
    .bss                                     0x20004978   Section       12  bsp_gpio.o(.bss)
    .bss                                     0x20004984   Section       16  bsp_md5.o(.bss)
    .bss                                     0x20004994   Section    65536  heap_2.o(.bss)
    ucHeap                                   0x20004994   Data       65536  heap_2.o(.bss)
    .bss                                     0x20014994   Section       64  queue.o(.bss)
    .bss                                     0x200149d4   Section      400  tasks.o(.bss)
    pxReadyTasksLists                        0x200149d4   Data         300  tasks.o(.bss)
    xDelayedTaskList1                        0x20014b00   Data          20  tasks.o(.bss)
    xDelayedTaskList2                        0x20014b14   Data          20  tasks.o(.bss)
    xPendingReadyList                        0x20014b28   Data          20  tasks.o(.bss)
    xTasksWaitingTermination                 0x20014b3c   Data          20  tasks.o(.bss)
    xSuspendedTaskList                       0x20014b50   Data          20  tasks.o(.bss)
    .bss                                     0x20014b64   Section     2704  usb_bsp.o(.bss)
    .bss                                     0x200155f4   Section     4144  usbd_msc_bot.o(.bss)
    .bss                                     0x20016624   Section       32  usbd_msc_scsi.o(.bss)
    .bss                                     0x20016644   Section       64  usbd_req.o(.bss)
    STACK                                    0x20016688   Section     1024  startup_stm32f411xe.o(STACK)

    Global Symbols

    Symbol Name                              Value     Ov Type        Size  Object(Section)

    BuildAttributes$$THM_ISAv4$E$P$D$K$B$S$7EM$VFPi3$EXTD16$VFPS$VFMA$PE$A:L22UL41UL21$X:L11$S22US41US21$IEEE1$IW$USESV6$~STKCKD$USESV7$~SHL$OTIME$ROPI$EBA8$MICROLIB$REQ8$PRES8$EABIv2 0x00000000   Number         0  anon$$obj.o ABSOLUTE
    __ARM_use_no_argv                        0x00000000   Number         0  main.o ABSOLUTE
    __use_no_errno                           0x00000000   Number         0  useno.o ABSOLUTE
    __use_no_exception_handling              0x00000000   Number         0  useno.o ABSOLUTE
    __use_no_fp                              0x00000000   Number         0  useno.o ABSOLUTE
    __use_no_heap                            0x00000000   Number         0  useno.o ABSOLUTE
    __use_no_heap_region                     0x00000000   Number         0  useno.o ABSOLUTE
    __use_no_semihosting                     0x00000000   Number         0  useno.o ABSOLUTE
    __use_no_semihosting_swi                 0x00000000   Number         0  useno.o ABSOLUTE
    __use_no_signal_handling                 0x00000000   Number         0  useno.o ABSOLUTE
    _printf_a                                0x00000000   Number         0  stubs.o ABSOLUTE
    _printf_c                                0x00000000   Number         0  stubs.o ABSOLUTE
    _printf_charcount                        0x00000000   Number         0  stubs.o ABSOLUTE
    _printf_d                                0x00000000   Number         0  stubs.o ABSOLUTE
    _printf_e                                0x00000000   Number         0  stubs.o ABSOLUTE
    _printf_f                                0x00000000   Number         0  stubs.o ABSOLUTE
    _printf_flags                            0x00000000   Number         0  stubs.o ABSOLUTE
    _printf_fp_dec                           0x00000000   Number         0  stubs.o ABSOLUTE
    _printf_fp_hex                           0x00000000   Number         0  stubs.o ABSOLUTE
    _printf_g                                0x00000000   Number         0  stubs.o ABSOLUTE
    _printf_i                                0x00000000   Number         0  stubs.o ABSOLUTE
    _printf_int_dec                          0x00000000   Number         0  stubs.o ABSOLUTE
    _printf_l                                0x00000000   Number         0  stubs.o ABSOLUTE
    _printf_lc                               0x00000000   Number         0  stubs.o ABSOLUTE
    _printf_ll                               0x00000000   Number         0  stubs.o ABSOLUTE
    _printf_lld                              0x00000000   Number         0  stubs.o ABSOLUTE
    _printf_lli                              0x00000000   Number         0  stubs.o ABSOLUTE
    _printf_llo                              0x00000000   Number         0  stubs.o ABSOLUTE
    _printf_llu                              0x00000000   Number         0  stubs.o ABSOLUTE
    _printf_llx                              0x00000000   Number         0  stubs.o ABSOLUTE
    _printf_longlong_dec                     0x00000000   Number         0  stubs.o ABSOLUTE
    _printf_longlong_hex                     0x00000000   Number         0  stubs.o ABSOLUTE
    _printf_longlong_oct                     0x00000000   Number         0  stubs.o ABSOLUTE
    _printf_ls                               0x00000000   Number         0  stubs.o ABSOLUTE
    _printf_mbtowc                           0x00000000   Number         0  stubs.o ABSOLUTE
    _printf_n                                0x00000000   Number         0  stubs.o ABSOLUTE
    _printf_o                                0x00000000   Number         0  stubs.o ABSOLUTE
    _printf_p                                0x00000000   Number         0  stubs.o ABSOLUTE
    _printf_percent                          0x00000000   Number         0  stubs.o ABSOLUTE
    _printf_pre_padding                      0x00000000   Number         0  stubs.o ABSOLUTE
    _printf_return_value                     0x00000000   Number         0  stubs.o ABSOLUTE
    _printf_s                                0x00000000   Number         0  stubs.o ABSOLUTE
    _printf_sizespec                         0x00000000   Number         0  stubs.o ABSOLUTE
    _printf_str                              0x00000000   Number         0  stubs.o ABSOLUTE
    _printf_truncate_signed                  0x00000000   Number         0  stubs.o ABSOLUTE
    _printf_truncate_unsigned                0x00000000   Number         0  stubs.o ABSOLUTE
    _printf_u                                0x00000000   Number         0  stubs.o ABSOLUTE
    _printf_wc                               0x00000000   Number         0  stubs.o ABSOLUTE
    _printf_wctomb                           0x00000000   Number         0  stubs.o ABSOLUTE
    _printf_widthprec                        0x00000000   Number         0  stubs.o ABSOLUTE
    _printf_x                                0x00000000   Number         0  stubs.o ABSOLUTE
    __cpp_initialize__aeabi_                  - Undefined Weak Reference
    __cxa_finalize                            - Undefined Weak Reference
    _clock_init                               - Undefined Weak Reference
    _microlib_exit                            - Undefined Weak Reference
    __Vectors_Size                           0x00000198   Number         0  startup_stm32f411xe.o ABSOLUTE
    __Vectors                                0x08020000   Data           4  startup_stm32f411xe.o(RESET)
    __Vectors_End                            0x08020198   Data           0  startup_stm32f411xe.o(RESET)
    __main                                   0x08020199   Thumb Code     0  entry.o(.ARM.Collect$$$$00000000)
    _main_stk                                0x08020199   Thumb Code     0  entry2.o(.ARM.Collect$$$$00000001)
    _main_scatterload                        0x0802019d   Thumb Code     0  entry5.o(.ARM.Collect$$$$00000004)
    __main_after_scatterload                 0x080201a1   Thumb Code     0  entry5.o(.ARM.Collect$$$$00000004)
    _main_clock                              0x080201a1   Thumb Code     0  entry7b.o(.ARM.Collect$$$$00000008)
    _main_cpp_init                           0x080201a1   Thumb Code     0  entry8b.o(.ARM.Collect$$$$0000000A)
    _main_init                               0x080201a1   Thumb Code     0  entry9a.o(.ARM.Collect$$$$0000000B)
    __rt_final_cpp                           0x080201a9   Thumb Code     0  entry10a.o(.ARM.Collect$$$$0000000D)
    __rt_final_exit                          0x080201a9   Thumb Code     0  entry11a.o(.ARM.Collect$$$$0000000F)
    SVC_Handler                              0x080201ad   Thumb Code    28  port.o(.emb_text)
    __asm___6_port_c_39a90d8d__prvStartFirstTask 0x080201cd   Thumb Code    28  port.o(.emb_text)
    __asm___6_port_c_39a90d8d__prvEnableVFP  0x080201ed   Thumb Code    16  port.o(.emb_text)
    PendSV_Handler                           0x08020201   Thumb Code    84  port.o(.emb_text)
    ulPortSetInterruptMask                   0x08020259   Thumb Code    14  port.o(.emb_text)
    vPortClearInterruptMask                  0x08020267   Thumb Code     6  port.o(.emb_text)
    vPortGetIPSR                             0x0802026d   Thumb Code     6  port.o(.emb_text)
    main                                     0x08020275   Thumb Code   324  main.o(.text)
    NMI_Handler                              0x08020409   Thumb Code     2  stm32f4xx_it.o(.text)
    HardFault_Handler                        0x0802040b   Thumb Code     4  stm32f4xx_it.o(.text)
    MemManage_Handler                        0x0802040f   Thumb Code     4  stm32f4xx_it.o(.text)
    BusFault_Handler                         0x08020413   Thumb Code     4  stm32f4xx_it.o(.text)
    UsageFault_Handler                       0x08020417   Thumb Code     4  stm32f4xx_it.o(.text)
    DebugMon_Handler                         0x0802041b   Thumb Code     2  stm32f4xx_it.o(.text)
    OTG_FS_IRQHandler                        0x0802041d   Thumb Code    10  stm32f4xx_it.o(.text)
    GetRandNumber                            0x0802042d   Thumb Code    18  task_communicate_protocol.o(.text)
    CRC16                                    0x0802043f   Thumb Code    48  task_communicate_protocol.o(.text)
    L1_RESPOND                               0x0802046f   Thumb Code   100  task_communicate_protocol.o(.text)
    L1_Pack                                  0x080204d3   Thumb Code   344  task_communicate_protocol.o(.text)
    L2_RxKeys_Handle                         0x0802062b   Thumb Code  4318  task_communicate_protocol.o(.text)
    L1_Unpack                                0x08021709   Thumb Code   532  task_communicate_protocol.o(.text)
    USART_L0_RXTask                          0x0802191d   Thumb Code   300  task_communicate_protocol.o(.text)
    USART_L0_TXTask                          0x08021a49   Thumb Code   132  task_communicate_protocol.o(.text)
    SetSysClock                              0x08021af5   Thumb Code   216  system_stm32f4xx.o(.text)
    SystemInit                               0x08021bcd   Thumb Code    88  system_stm32f4xx.o(.text)
    SystemCoreClockUpdate                    0x08021c25   Thumb Code   152  system_stm32f4xx.o(.text)
    BT_Reset                                 0x08021ce9   Thumb Code   110  task_hardwarecontrol.o(.text)
    bsp_USB_Shutdown                         0x08021d57   Thumb Code    20  task_hardwarecontrol.o(.text)
    bsp_EnterStop                            0x08021d6b   Thumb Code   680  task_hardwarecontrol.o(.text)
    bsp_ExitStop                             0x08022013   Thumb Code   180  task_hardwarecontrol.o(.text)
    EXTI3_IRQHandler                         0x080220c7   Thumb Code   194  task_hardwarecontrol.o(.text)
    BSP_Task                                 0x08022189   Thumb Code  3616  task_hardwarecontrol.o(.text)
    Get_Adc                                  0x08022fe9   Thumb Code   174  bsp_adc.o(.text)
    Get_Percent                              0x08023097   Thumb Code   160  bsp_adc.o(.text)
    Get_Battery                              0x08023137   Thumb Code   382  bsp_adc.o(.text)
    bsp_AdcInit                              0x080232b5   Thumb Code   130  bsp_adc.o(.text)
    STM32_AES_ECB_Encrypt                    0x080233c1   Thumb Code   100  bsp_aesecb256.o(.text)
    STM32_AES_ECB_Decrypt                    0x08023425   Thumb Code   100  bsp_aesecb256.o(.text)
    Buffercmp1                               0x08023489   Thumb Code    36  bsp_aesecb256.o(.text)
    ForDelay_1us                             0x080234ad   Thumb Code    12  bsp_delay.o(.text)
    ForDelay_1ms                             0x080234b9   Thumb Code    22  bsp_delay.o(.text)
    ForDelay_nus                             0x080234cf   Thumb Code    20  bsp_delay.o(.text)
    ForDelay_nms                             0x080234e3   Thumb Code    20  bsp_delay.o(.text)
    bsp_ChangeAPPtoRun                       0x080234f9   Thumb Code    84  bsp_filesystem.o(.text)
    bsp_FSInit                               0x0802354d   Thumb Code    26  bsp_filesystem.o(.text)
    bsp_SysinfoSave                          0x08023567   Thumb Code   150  bsp_filesystem.o(.text)
    bsp_SysinfoInit                          0x080235fd   Thumb Code    78  bsp_filesystem.o(.text)
    bsp_MCU_Write                            0x0802364b   Thumb Code   174  bsp_filesystem.o(.text)
    bsp_MCU_Read                             0x080236f9   Thumb Code    64  bsp_filesystem.o(.text)
    bsp_Firmware_Erase                       0x08023739   Thumb Code    54  bsp_filesystem.o(.text)
    bsp_Firmware_Write                       0x0802376f   Thumb Code   108  bsp_filesystem.o(.text)
    bsp_T_Write                              0x080237db   Thumb Code   126  bsp_filesystem.o(.text)
    bsp_T_Read                               0x08023859   Thumb Code   104  bsp_filesystem.o(.text)
    INTX_DISABLE                             0x08023931   Thumb Code    10  bsp_sdio.o(.text)
    INTX_ENABLE                              0x0802393b   Thumb Code    10  bsp_sdio.o(.text)
    SDIO_Register_Deinit                     0x08023945   Thumb Code    48  bsp_sdio.o(.text)
    SD_SetDeviceMode                         0x08023975   Thumb Code    20  bsp_sdio.o(.text)
    SDIO_Clock_Set                           0x08023989   Thumb Code    18  bsp_sdio.o(.text)
    CmdResp1Error                            0x0802399b   Thumb Code    96  bsp_sdio.o(.text)
    FindSCR                                  0x080239fb   Thumb Code   396  bsp_sdio.o(.text)
    SDEnWideBus                              0x08023b87   Thumb Code   160  bsp_sdio.o(.text)
    SD_EnableWideBusOperation                0x08023c27   Thumb Code    98  bsp_sdio.o(.text)
    SD_SelectDeselect                        0x08023c89   Thumb Code    42  bsp_sdio.o(.text)
    SD_GetCardInfo                           0x08023cb3   Thumb Code   806  bsp_sdio.o(.text)
    CmdResp2Error                            0x08023fd9   Thumb Code    80  bsp_sdio.o(.text)
    CmdResp6Error                            0x08024029   Thumb Code   144  bsp_sdio.o(.text)
    SD_InitializeCards                       0x080240b9   Thumb Code   356  bsp_sdio.o(.text)
    CmdResp3Error                            0x0802421d   Thumb Code    52  bsp_sdio.o(.text)
    CmdResp7Error                            0x08024251   Thumb Code    72  bsp_sdio.o(.text)
    CmdError                                 0x08024299   Thumb Code    48  bsp_sdio.o(.text)
    SD_PowerON                               0x080242c9   Thumb Code   460  bsp_sdio.o(.text)
    SD_Init                                  0x08024495   Thumb Code   338  bsp_sdio.o(.text)
    SD_PowerOFF                              0x080245e7   Thumb Code    12  bsp_sdio.o(.text)
    SD_DMA_Config                            0x080245f3   Thumb Code   118  bsp_sdio.o(.text)
    convert_from_bytes_to_power_of_two       0x08024669   Thumb Code    18  bsp_sdio.o(.text)
    SD_ReadBlock                             0x0802467b   Thumb Code   578  bsp_sdio.o(.text)
    SD_ReadMultiBlocks                       0x080248bd   Thumb Code   762  bsp_sdio.o(.text)
    IsCardProgramming                        0x08024bb7   Thumb Code   150  bsp_sdio.o(.text)
    SD_WriteBlock                            0x08024c4d   Thumb Code   914  bsp_sdio.o(.text)
    SD_WriteMultiBlocks                      0x08024fdf   Thumb Code   976  bsp_sdio.o(.text)
    SD_ProcessIRQSrc                         0x080253af   Thumb Code   322  bsp_sdio.o(.text)
    SDIO_IRQHandler                          0x080254f1   Thumb Code     8  bsp_sdio.o(.text)
    SD_SendStatus                            0x080254f9   Thumb Code    74  bsp_sdio.o(.text)
    SD_GetState                              0x08025543   Thumb Code    26  bsp_sdio.o(.text)
    SD_ReadDisk                              0x0802555d   Thumb Code   192  bsp_sdio.o(.text)
    SD_WriteDisk                             0x0802561d   Thumb Code   152  bsp_sdio.o(.text)
    _sys_exit                                0x080256bd   Thumb Code     6  bsp_usart.o(.text)
    fputc                                    0x080256c3   Thumb Code    24  bsp_usart.o(.text)
    USART2_Init                              0x080256db   Thumb Code   170  bsp_usart.o(.text)
    USART2_Init_withoutTx                    0x08025785   Thumb Code   160  bsp_usart.o(.text)
    BT_CMDHandler                            0x08025825   Thumb Code   368  bsp_usart.o(.text)
    USART2_IRQHandler                        0x08025995   Thumb Code   550  bsp_usart.o(.text)
    bsp_PowerOnInit                          0x08025be5   Thumb Code    72  bsp_gpio.o(.text)
    bsp_GpioInit                             0x08025c2d   Thumb Code   348  bsp_gpio.o(.text)
    EXTI9_5_IRQHandler                       0x08025d89   Thumb Code   158  bsp_gpio.o(.text)
    bsp_LED0On                               0x08025e27   Thumb Code    14  bsp_gpio.o(.text)
    bsp_LED0Off                              0x08025e35   Thumb Code    14  bsp_gpio.o(.text)
    bsp_LED1On                               0x08025e43   Thumb Code    12  bsp_gpio.o(.text)
    bsp_LED1Off                              0x08025e4f   Thumb Code    12  bsp_gpio.o(.text)
    bsp_LED2On                               0x08025e5b   Thumb Code    12  bsp_gpio.o(.text)
    bsp_LED2Off                              0x08025e67   Thumb Code    12  bsp_gpio.o(.text)
    bsp_BUZZOn                               0x08025e73   Thumb Code    12  bsp_gpio.o(.text)
    bsp_BUZZOff                              0x08025e7f   Thumb Code    14  bsp_gpio.o(.text)
    bsp_SDPWROn                              0x08025e8d   Thumb Code    20  bsp_gpio.o(.text)
    bsp_SDPWROff                             0x08025ea1   Thumb Code    84  bsp_gpio.o(.text)
    Ble_Discon                               0x08025ef5   Thumb Code    36  bsp_gpio.o(.text)
    bsp_BTPWROn                              0x08025f19   Thumb Code    82  bsp_gpio.o(.text)
    bsp_BTPWRInit                            0x08025f6b   Thumb Code    64  bsp_gpio.o(.text)
    bsp_BTPWROff                             0x08025fab   Thumb Code    90  bsp_gpio.o(.text)
    BT_HardReset                             0x08026005   Thumb Code    26  bsp_gpio.o(.text)
    Reset_Handler                            0x08026025   Thumb Code     8  startup_stm32f411xe.o(.text)
    ADC_IRQHandler                           0x0802603f   Thumb Code     0  startup_stm32f411xe.o(.text)
    DMA1_Stream0_IRQHandler                  0x0802603f   Thumb Code     0  startup_stm32f411xe.o(.text)
    DMA1_Stream1_IRQHandler                  0x0802603f   Thumb Code     0  startup_stm32f411xe.o(.text)
    DMA1_Stream2_IRQHandler                  0x0802603f   Thumb Code     0  startup_stm32f411xe.o(.text)
    DMA1_Stream3_IRQHandler                  0x0802603f   Thumb Code     0  startup_stm32f411xe.o(.text)
    DMA1_Stream4_IRQHandler                  0x0802603f   Thumb Code     0  startup_stm32f411xe.o(.text)
    DMA1_Stream5_IRQHandler                  0x0802603f   Thumb Code     0  startup_stm32f411xe.o(.text)
    DMA1_Stream6_IRQHandler                  0x0802603f   Thumb Code     0  startup_stm32f411xe.o(.text)
    DMA1_Stream7_IRQHandler                  0x0802603f   Thumb Code     0  startup_stm32f411xe.o(.text)
    DMA2_Stream0_IRQHandler                  0x0802603f   Thumb Code     0  startup_stm32f411xe.o(.text)
    DMA2_Stream1_IRQHandler                  0x0802603f   Thumb Code     0  startup_stm32f411xe.o(.text)
    DMA2_Stream2_IRQHandler                  0x0802603f   Thumb Code     0  startup_stm32f411xe.o(.text)
    DMA2_Stream3_IRQHandler                  0x0802603f   Thumb Code     0  startup_stm32f411xe.o(.text)
    DMA2_Stream4_IRQHandler                  0x0802603f   Thumb Code     0  startup_stm32f411xe.o(.text)
    DMA2_Stream5_IRQHandler                  0x0802603f   Thumb Code     0  startup_stm32f411xe.o(.text)
    DMA2_Stream6_IRQHandler                  0x0802603f   Thumb Code     0  startup_stm32f411xe.o(.text)
    DMA2_Stream7_IRQHandler                  0x0802603f   Thumb Code     0  startup_stm32f411xe.o(.text)
    EXTI0_IRQHandler                         0x0802603f   Thumb Code     0  startup_stm32f411xe.o(.text)
    EXTI15_10_IRQHandler                     0x0802603f   Thumb Code     0  startup_stm32f411xe.o(.text)
    EXTI1_IRQHandler                         0x0802603f   Thumb Code     0  startup_stm32f411xe.o(.text)
    EXTI2_IRQHandler                         0x0802603f   Thumb Code     0  startup_stm32f411xe.o(.text)
    EXTI4_IRQHandler                         0x0802603f   Thumb Code     0  startup_stm32f411xe.o(.text)
    FLASH_IRQHandler                         0x0802603f   Thumb Code     0  startup_stm32f411xe.o(.text)
    FPU_IRQHandler                           0x0802603f   Thumb Code     0  startup_stm32f411xe.o(.text)
    I2C1_ER_IRQHandler                       0x0802603f   Thumb Code     0  startup_stm32f411xe.o(.text)
    I2C1_EV_IRQHandler                       0x0802603f   Thumb Code     0  startup_stm32f411xe.o(.text)
    I2C2_ER_IRQHandler                       0x0802603f   Thumb Code     0  startup_stm32f411xe.o(.text)
    I2C2_EV_IRQHandler                       0x0802603f   Thumb Code     0  startup_stm32f411xe.o(.text)
    I2C3_ER_IRQHandler                       0x0802603f   Thumb Code     0  startup_stm32f411xe.o(.text)
    I2C3_EV_IRQHandler                       0x0802603f   Thumb Code     0  startup_stm32f411xe.o(.text)
    OTG_FS_WKUP_IRQHandler                   0x0802603f   Thumb Code     0  startup_stm32f411xe.o(.text)
    PVD_IRQHandler                           0x0802603f   Thumb Code     0  startup_stm32f411xe.o(.text)
    RCC_IRQHandler                           0x0802603f   Thumb Code     0  startup_stm32f411xe.o(.text)
    RTC_Alarm_IRQHandler                     0x0802603f   Thumb Code     0  startup_stm32f411xe.o(.text)
    SPI1_IRQHandler                          0x0802603f   Thumb Code     0  startup_stm32f411xe.o(.text)
    SPI2_IRQHandler                          0x0802603f   Thumb Code     0  startup_stm32f411xe.o(.text)
    SPI3_IRQHandler                          0x0802603f   Thumb Code     0  startup_stm32f411xe.o(.text)
    SPI4_IRQHandler                          0x0802603f   Thumb Code     0  startup_stm32f411xe.o(.text)
    SPI5_IRQHandler                          0x0802603f   Thumb Code     0  startup_stm32f411xe.o(.text)
    TAMP_STAMP_IRQHandler                    0x0802603f   Thumb Code     0  startup_stm32f411xe.o(.text)
    TIM1_BRK_TIM9_IRQHandler                 0x0802603f   Thumb Code     0  startup_stm32f411xe.o(.text)
    TIM1_CC_IRQHandler                       0x0802603f   Thumb Code     0  startup_stm32f411xe.o(.text)
    TIM1_TRG_COM_TIM11_IRQHandler            0x0802603f   Thumb Code     0  startup_stm32f411xe.o(.text)
    TIM1_UP_TIM10_IRQHandler                 0x0802603f   Thumb Code     0  startup_stm32f411xe.o(.text)
    TIM2_IRQHandler                          0x0802603f   Thumb Code     0  startup_stm32f411xe.o(.text)
    TIM3_IRQHandler                          0x0802603f   Thumb Code     0  startup_stm32f411xe.o(.text)
    TIM4_IRQHandler                          0x0802603f   Thumb Code     0  startup_stm32f411xe.o(.text)
    TIM5_IRQHandler                          0x0802603f   Thumb Code     0  startup_stm32f411xe.o(.text)
    USART1_IRQHandler                        0x0802603f   Thumb Code     0  startup_stm32f411xe.o(.text)
    USART6_IRQHandler                        0x0802603f   Thumb Code     0  startup_stm32f411xe.o(.text)
    WWDG_IRQHandler                          0x0802603f   Thumb Code     0  startup_stm32f411xe.o(.text)
    RTC_Config                               0x08026049   Thumb Code   168  bsp_rtc.o(.text)
    RTC_WKUP_IRQHandler                      0x080260f1   Thumb Code    40  bsp_rtc.o(.text)
    IDog_Init                                0x08026119   Thumb Code    34  bsp_rtc.o(.text)
    Buffercmp                                0x08026141   Thumb Code    36  bsp_md5.o(.text)
    STM32_MD5_HASH_DigestCompute             0x08026165   Thumb Code    70  bsp_md5.o(.text)
    MD5_Test                                 0x080261ab   Thumb Code    38  bsp_md5.o(.text)
    pvPortMalloc                             0x0802620f   Thumb Code   166  heap_2.o(.text)
    vPortFree                                0x080262b5   Thumb Code    56  heap_2.o(.text)
    xPortGetFreeHeapSize                     0x080262ed   Thumb Code     6  heap_2.o(.text)
    vPortInitialiseBlocks                    0x080262f3   Thumb Code     2  heap_2.o(.text)
    vListInitialise                          0x08026309   Thumb Code    26  list.o(.text)
    vListInitialiseItem                      0x08026323   Thumb Code     6  list.o(.text)
    vListInsertEnd                           0x08026329   Thumb Code    24  list.o(.text)
    vListInsert                              0x08026341   Thumb Code    52  list.o(.text)
    uxListRemove                             0x08026375   Thumb Code    40  list.o(.text)
    pxPortInitialiseStack                    0x080263a5   Thumb Code    34  port.o(.text)
    vPortSetupTimerInterrupt                 0x080263c7   Thumb Code    26  port.o(.text)
    xPortStartScheduler                      0x080263e1   Thumb Code    58  port.o(.text)
    vPortEndScheduler                        0x0802641b   Thumb Code     2  port.o(.text)
    vPortYield                               0x0802641d   Thumb Code    20  port.o(.text)
    vPortEnterCritical                       0x08026431   Thumb Code    26  port.o(.text)
    vPortExitCritical                        0x0802644b   Thumb Code    26  port.o(.text)
    SysTick_Handler                          0x08026465   Thumb Code    30  port.o(.text)
    xQueueGenericReset                       0x08026499   Thumb Code   110  queue.o(.text)
    xQueueGenericCreate                      0x08026507   Thumb Code    72  queue.o(.text)
    xQueueGenericSend                        0x08026659   Thumb Code   234  queue.o(.text)
    xQueueGenericSendFromISR                 0x08026743   Thumb Code   114  queue.o(.text)
    xQueueGenericReceive                     0x080267f9   Thumb Code   254  queue.o(.text)
    xQueueReceiveFromISR                     0x080268f7   Thumb Code    96  queue.o(.text)
    xQueuePeekFromISR                        0x08026957   Thumb Code    50  queue.o(.text)
    uxQueueMessagesWaiting                   0x08026989   Thumb Code    18  queue.o(.text)
    uxQueueSpacesAvailable                   0x0802699b   Thumb Code    24  queue.o(.text)
    uxQueueMessagesWaitingFromISR            0x080269b3   Thumb Code     6  queue.o(.text)
    vQueueUnregisterQueue                    0x080269b9   Thumb Code    38  queue.o(.text)
    vQueueDelete                             0x080269df   Thumb Code    30  queue.o(.text)
    xQueueIsQueueEmptyFromISR                0x080269fd   Thumb Code    14  queue.o(.text)
    xQueueIsQueueFullFromISR                 0x08026a0b   Thumb Code    18  queue.o(.text)
    vQueueAddToRegistry                      0x08026a1d   Thumb Code    38  queue.o(.text)
    xTaskGenericCreate                       0x08026b11   Thumb Code   226  tasks.o(.text)
    vTaskDelete                              0x08026c1d   Thumb Code   138  tasks.o(.text)
    xTaskIncrementTick                       0x08026ca7   Thumb Code   242  tasks.o(.text)
    xTaskResumeAll                           0x08026d99   Thumb Code   268  tasks.o(.text)
    vTaskSuspendAll                          0x08026ee3   Thumb Code    12  tasks.o(.text)
    vTaskDelayUntil                          0x08026eef   Thumb Code   126  tasks.o(.text)
    vTaskDelay                               0x08026f6d   Thumb Code    72  tasks.o(.text)
    uxTaskPriorityGet                        0x08026fb5   Thumb Code    30  tasks.o(.text)
    vTaskPrioritySet                         0x08026fd3   Thumb Code   204  tasks.o(.text)
    vTaskSwitchContext                       0x0802709f   Thumb Code    76  tasks.o(.text)
    vTaskSuspend                             0x080270eb   Thumb Code   150  tasks.o(.text)
    vTaskResume                              0x080271b9   Thumb Code    94  tasks.o(.text)
    xTaskResumeFromISR                       0x08027217   Thumb Code   166  tasks.o(.text)
    vTaskStartScheduler                      0x08027339   Thumb Code    54  tasks.o(.text)
    vTaskEndScheduler                        0x0802736f   Thumb Code    18  tasks.o(.text)
    xTaskGetTickCount                        0x08027381   Thumb Code    18  tasks.o(.text)
    xTaskGetTickCountFromISR                 0x08027393   Thumb Code    22  tasks.o(.text)
    uxTaskGetNumberOfTasks                   0x080273a9   Thumb Code     6  tasks.o(.text)
    vTaskPlaceOnEventList                    0x080273af   Thumb Code    84  tasks.o(.text)
    vTaskPlaceOnUnorderedEventList           0x08027403   Thumb Code   100  tasks.o(.text)
    xTaskRemoveFromEventList                 0x08027467   Thumb Code   104  tasks.o(.text)
    xTaskRemoveFromUnorderedEventList        0x080274cf   Thumb Code    94  tasks.o(.text)
    vTaskSetTimeOutState                     0x0802752d   Thumb Code    14  tasks.o(.text)
    xTaskCheckForTimeOut                     0x0802753b   Thumb Code    84  tasks.o(.text)
    vTaskMissedYield                         0x0802758f   Thumb Code     8  tasks.o(.text)
    uxTaskResetEventItemValue                0x08027597   Thumb Code    24  tasks.o(.text)
    USB_OTG_BSP_Init                         0x080275f1   Thumb Code   108  usb_bsp.o(.text)
    USB_OTG_BSP_EnableInterrupt              0x0802765d   Thumb Code    60  usb_bsp.o(.text)
    USB_OTG_BSP_DriveVBUS                    0x08027699   Thumb Code     2  usb_bsp.o(.text)
    USB_OTG_BSP_mDelay                       0x0802769b   Thumb Code    12  usb_bsp.o(.text)
    USB_OTG_BSP_ConfigVBUS                   0x080276a7   Thumb Code    12  usb_bsp.o(.text)
    USB_OTG_BSP_TimeInit                     0x080276b3   Thumb Code     2  usb_bsp.o(.text)
    USB_OTG_BSP_uDelay                       0x080276b5   Thumb Code    12  usb_bsp.o(.text)
    USB_OTG_BSP_TimerIRQ                     0x080276c1   Thumb Code     2  usb_bsp.o(.text)
    USB_OTG_WritePacket                      0x08027769   Thumb Code    64  usb_core.o(.text)
    USB_OTG_ReadPacket                       0x080277a9   Thumb Code    40  usb_core.o(.text)
    USB_OTG_SelectCore                       0x080277d1   Thumb Code   204  usb_core.o(.text)
    USB_OTG_CoreInit                         0x0802789d   Thumb Code   294  usb_core.o(.text)
    USB_OTG_EnableGlobalInt                  0x080279c3   Thumb Code    34  usb_core.o(.text)
    USB_OTG_DisableGlobalInt                 0x080279e5   Thumb Code    34  usb_core.o(.text)
    USB_OTG_FlushTxFifo                      0x08027a07   Thumb Code    80  usb_core.o(.text)
    USB_OTG_FlushRxFifo                      0x08027a57   Thumb Code    70  usb_core.o(.text)
    USB_OTG_SetCurrentMode                   0x08027a9d   Thumb Code    78  usb_core.o(.text)
    USB_OTG_GetMode                          0x08027aeb   Thumb Code    22  usb_core.o(.text)
    USB_OTG_IsDeviceMode                     0x08027b01   Thumb Code    22  usb_core.o(.text)
    USB_OTG_IsHostMode                       0x08027b17   Thumb Code    20  usb_core.o(.text)
    USB_OTG_ReadCoreItr                      0x08027b2b   Thumb Code    16  usb_core.o(.text)
    USB_OTG_ReadOtgItr                       0x08027b3b   Thumb Code     8  usb_core.o(.text)
    USB_OTG_EnableHostInt                    0x08027b43   Thumb Code   116  usb_core.o(.text)
    USB_OTG_ReadHPRT0                        0x08027bb7   Thumb Code    48  usb_core.o(.text)
    USB_OTG_DriveVbus                        0x08027be7   Thumb Code    92  usb_core.o(.text)
    USB_OTG_ResetPort                        0x08027c43   Thumb Code    64  usb_core.o(.text)
    USB_OTG_InitFSLSPClkSel                  0x08027c83   Thumb Code    24  usb_core.o(.text)
    USB_OTG_CoreInitHost                     0x08027c9b   Thumb Code   214  usb_core.o(.text)
    USB_OTG_IsEvenFrame                      0x08027d71   Thumb Code    16  usb_core.o(.text)
    USB_OTG_ReadHostAllChannels_intr         0x08027d81   Thumb Code     8  usb_core.o(.text)
    USB_OTG_HC_Init                          0x08027d89   Thumb Code   568  usb_core.o(.text)
    USB_OTG_HC_StartXfer                     0x08027fc1   Thumb Code   502  usb_core.o(.text)
    USB_OTG_HC_Halt                          0x080281b7   Thumb Code   130  usb_core.o(.text)
    USB_OTG_HC_DoPing                        0x08028239   Thumb Code    90  usb_core.o(.text)
    USB_OTG_StopHost                         0x08028293   Thumb Code    96  usb_core.o(.text)
    USB_OTG_InitDevSpeed                     0x080282f3   Thumb Code    24  usb_core.o(.text)
    USB_OTG_EnableDevInt                     0x0802830b   Thumb Code   154  usb_core.o(.text)
    USB_OTG_CoreInitDev                      0x080283a5   Thumb Code   522  usb_core.o(.text)
    USB_OTG_GetDeviceSpeed                   0x080285af   Thumb Code    52  usb_core.o(.text)
    USB_OTG_EP0Activate                      0x080285e3   Thumb Code   106  usb_core.o(.text)
    USB_OTG_EPActivate                       0x0802864d   Thumb Code   152  usb_core.o(.text)
    USB_OTG_EPDeactivate                     0x080286e5   Thumb Code    94  usb_core.o(.text)
    USB_OTG_EPStartXfer                      0x08028743   Thumb Code   502  usb_core.o(.text)
    USB_OTG_EP0StartXfer                     0x08028939   Thumb Code   342  usb_core.o(.text)
    USB_OTG_EPSetStall                       0x08028a8f   Thumb Code   100  usb_core.o(.text)
    USB_OTG_EPClearStall                     0x08028af3   Thumb Code    80  usb_core.o(.text)
    USB_OTG_ReadDevAllOutEp_itr              0x08028b43   Thumb Code    16  usb_core.o(.text)
    USB_OTG_ReadDevOutEP_itr                 0x08028b53   Thumb Code    20  usb_core.o(.text)
    USB_OTG_ReadDevAllInEPItr                0x08028b67   Thumb Code    16  usb_core.o(.text)
    USB_OTG_EP0_OutStart                     0x08028b77   Thumb Code    98  usb_core.o(.text)
    USB_OTG_ActiveRemoteWakeup               0x08028bd9   Thumb Code   106  usb_core.o(.text)
    USB_OTG_UngateClock                      0x08028c43   Thumb Code    54  usb_core.o(.text)
    USB_OTG_StopDevice                       0x08028c79   Thumb Code    82  usb_core.o(.text)
    USB_OTG_GetEPStatus                      0x08028ccb   Thumb Code   106  usb_core.o(.text)
    USB_OTG_SetEPStatus                      0x08028d35   Thumb Code   282  usb_core.o(.text)
    DCD_Init                                 0x08028e4f   Thumb Code   156  usb_dcd.o(.text)
    DCD_EP_Open                              0x08028eeb   Thumb Code   104  usb_dcd.o(.text)
    DCD_EP_Close                             0x08028f53   Thumb Code    74  usb_dcd.o(.text)
    DCD_EP_PrepareRx                         0x08028f9d   Thumb Code    82  usb_dcd.o(.text)
    DCD_EP_Tx                                0x08028fef   Thumb Code    78  usb_dcd.o(.text)
    DCD_EP_Stall                             0x0802903d   Thumb Code    72  usb_dcd.o(.text)
    DCD_EP_ClrStall                          0x08029085   Thumb Code    72  usb_dcd.o(.text)
    DCD_EP_Flush                             0x080290cd   Thumb Code    36  usb_dcd.o(.text)
    DCD_EP_SetAddress                        0x080290f1   Thumb Code    28  usb_dcd.o(.text)
    DCD_DevConnect                           0x0802910d   Thumb Code    32  usb_dcd.o(.text)
    DCD_DevDisconnect                        0x0802912d   Thumb Code    34  usb_dcd.o(.text)
    DCD_GetEPStatus                          0x0802914f   Thumb Code    64  usb_dcd.o(.text)
    DCD_SetEPStatus                          0x0802918f   Thumb Code    62  usb_dcd.o(.text)
    USBD_OTG_ISR_Handler                     0x08029857   Thumb Code   224  usb_dcd_int.o(.text)
    USBD_DeInit                              0x0802993d   Thumb Code     6  usbd_core.o(.text)
    USBD_Init                                0x08029943   Thumb Code    66  usbd_core.o(.text)
    USBD_SetCfg                              0x08029bd7   Thumb Code    30  usbd_core.o(.text)
    USBD_ClrCfg                              0x08029bf5   Thumb Code    22  usbd_core.o(.text)
    USBD_USR_DeviceDescriptor                0x08029c35   Thumb Code    10  usbd_desc.o(.text)
    USBD_USR_LangIDStrDescriptor             0x08029c3f   Thumb Code    10  usbd_desc.o(.text)
    USBD_USR_ProductStrDescriptor            0x08029c49   Thumb Code    34  usbd_desc.o(.text)
    USBD_USR_ManufacturerStrDescriptor       0x08029c6b   Thumb Code    20  usbd_desc.o(.text)
    USBD_USR_SerialStrDescriptor             0x08029c7f   Thumb Code    34  usbd_desc.o(.text)
    USBD_USR_ConfigStrDescriptor             0x08029ca1   Thumb Code    34  usbd_desc.o(.text)
    USBD_USR_InterfaceStrDescriptor          0x08029cc3   Thumb Code    34  usbd_desc.o(.text)
    USBD_CtlSendData                         0x08029d71   Thumb Code    46  usbd_ioreq.o(.text)
    USBD_CtlContinueSendData                 0x08029d9f   Thumb Code    30  usbd_ioreq.o(.text)
    USBD_CtlPrepareRx                        0x08029dbd   Thumb Code    46  usbd_ioreq.o(.text)
    USBD_CtlContinueRx                       0x08029deb   Thumb Code    30  usbd_ioreq.o(.text)
    USBD_CtlSendStatus                       0x08029e09   Thumb Code    36  usbd_ioreq.o(.text)
    USBD_CtlReceiveStatus                    0x08029e2d   Thumb Code    36  usbd_ioreq.o(.text)
    USBD_GetRxCount                          0x08029e51   Thumb Code    20  usbd_ioreq.o(.text)
    MSC_BOT_Init                             0x08029e65   Thumb Code    54  usbd_msc_bot.o(.text)
    MSC_BOT_Reset                            0x08029e9b   Thumb Code    30  usbd_msc_bot.o(.text)
    MSC_BOT_DeInit                           0x08029eb9   Thumb Code     8  usbd_msc_bot.o(.text)
    MSC_BOT_SendCSW                          0x08029ec1   Thumb Code    48  usbd_msc_bot.o(.text)
    MSC_BOT_DataIn                           0x08029ef1   Thumb Code    70  usbd_msc_bot.o(.text)
    MSC_BOT_DataOut                          0x0802a061   Thumb Code    60  usbd_msc_bot.o(.text)
    MSC_BOT_CplClrFeature                    0x0802a09d   Thumb Code    56  usbd_msc_bot.o(.text)
    USBD_MSC_DeInit                          0x0802a0f9   Thumb Code    32  usbd_msc_core.o(.text)
    USBD_MSC_Init                            0x0802a119   Thumb Code    48  usbd_msc_core.o(.text)
    USBD_MSC_Setup                           0x0802a149   Thumb Code   276  usbd_msc_core.o(.text)
    USBD_MSC_DataIn                          0x0802a25d   Thumb Code    18  usbd_msc_core.o(.text)
    USBD_MSC_DataOut                         0x0802a26f   Thumb Code    18  usbd_msc_core.o(.text)
    USBD_MSC_GetCfgDesc                      0x0802a281   Thumb Code    10  usbd_msc_core.o(.text)
    SCSI_SenseCode                           0x0802a29d   Thumb Code    50  usbd_msc_scsi.o(.text)
    SCSI_ProcessCmd                          0x0802a8e7   Thumb Code   210  usbd_msc_scsi.o(.text)
    USBD_CtlError                            0x0802a9ed   Thumb Code    30  usbd_req.o(.text)
    USBD_StdDevReq                           0x0802add5   Thumb Code   114  usbd_req.o(.text)
    USBD_StdItfReq                           0x0802ae47   Thumb Code    76  usbd_req.o(.text)
    USBD_StdEPReq                            0x0802ae93   Thumb Code   360  usbd_req.o(.text)
    USBD_ParseSetupRequest                   0x0802affb   Thumb Code    72  usbd_req.o(.text)
    USBD_GetString                           0x0802b057   Thumb Code    82  usbd_req.o(.text)
    STORAGE_Init                             0x0802b0ad   Thumb Code     6  usbd_storage.o(.text)
    STORAGE_GetCapacity                      0x0802b0b3   Thumb Code    42  usbd_storage.o(.text)
    STORAGE_IsReady                          0x0802b0dd   Thumb Code    18  usbd_storage.o(.text)
    STORAGE_IsWriteProtected                 0x0802b0ef   Thumb Code     6  usbd_storage.o(.text)
    STORAGE_Read                             0x0802b0f5   Thumb Code    86  usbd_storage.o(.text)
    STORAGE_Write                            0x0802b14b   Thumb Code    86  usbd_storage.o(.text)
    STORAGE_GetMaxLun                        0x0802b1a1   Thumb Code     4  usbd_storage.o(.text)
    USBD_USR_Init                            0x0802b1ad   Thumb Code     8  usbd_usr.o(.text)
    USBD_USR_DeviceReset                     0x0802b1b5   Thumb Code     8  usbd_usr.o(.text)
    USBD_USR_DeviceConfigured                0x0802b1bd   Thumb Code    26  usbd_usr.o(.text)
    USBD_USR_DeviceSuspended                 0x0802b1d7   Thumb Code    14  usbd_usr.o(.text)
    USBD_USR_DeviceResumed                   0x0802b1e5   Thumb Code     8  usbd_usr.o(.text)
    USBD_USR_DeviceConnected                 0x0802b1ed   Thumb Code     2  usbd_usr.o(.text)
    USBD_USR_DeviceDisconnected              0x0802b1ef   Thumb Code     2  usbd_usr.o(.text)
    disk_initialize                          0x0802b201   Thumb Code    24  diskio.o(.text)
    disk_status                              0x0802b219   Thumb Code    12  diskio.o(.text)
    disk_read                                0x0802b225   Thumb Code    76  diskio.o(.text)
    disk_write                               0x0802b271   Thumb Code    74  diskio.o(.text)
    disk_ioctl                               0x0802b2bb   Thumb Code   104  diskio.o(.text)
    get_fattime                              0x0802b323   Thumb Code     4  diskio.o(.text)
    clust2sect                               0x0802b499   Thumb Code    26  ff.o(.text)
    get_fat                                  0x0802b4b3   Thumb Code   212  ff.o(.text)
    put_fat                                  0x0802b587   Thumb Code   262  ff.o(.text)
    f_mount                                  0x0802c669   Thumb Code    86  ff.o(.text)
    f_open                                   0x0802c6bf   Thumb Code   312  ff.o(.text)
    f_read                                   0x0802c7f7   Thumb Code   432  ff.o(.text)
    f_write                                  0x0802c9a7   Thumb Code   514  ff.o(.text)
    f_sync                                   0x0802cba9   Thumb Code   142  ff.o(.text)
    f_close                                  0x0802cc37   Thumb Code    32  ff.o(.text)
    f_lseek                                  0x0802cc57   Thumb Code   654  ff.o(.text)
    f_opendir                                0x0802cee5   Thumb Code   114  ff.o(.text)
    f_closedir                               0x0802cf57   Thumb Code    22  ff.o(.text)
    f_readdir                                0x0802cf6d   Thumb Code    96  ff.o(.text)
    f_stat                                   0x0802cfcd   Thumb Code    64  ff.o(.text)
    f_getfree                                0x0802d00d   Thumb Code   234  ff.o(.text)
    f_truncate                               0x0802d0f7   Thumb Code   184  ff.o(.text)
    f_unlink                                 0x0802d1af   Thumb Code   174  ff.o(.text)
    f_mkdir                                  0x0802d25d   Thumb Code   328  ff.o(.text)
    f_chmod                                  0x0802d3a5   Thumb Code    88  ff.o(.text)
    f_utime                                  0x0802d3fd   Thumb Code    78  ff.o(.text)
    f_rename                                 0x0802d44b   Thumb Code   288  ff.o(.text)
    f_mkfs                                   0x0802d56b   Thumb Code  1230  ff.o(.text)
    f_gets                                   0x0802da39   Thumb Code    82  ff.o(.text)
    f_putc                                   0x0802dacf   Thumb Code    64  ff.o(.text)
    f_puts                                   0x0802db0f   Thumb Code    74  ff.o(.text)
    f_printf                                 0x0802db59   Thumb Code   638  ff.o(.text)
    ff_convert                               0x0802ddd9   Thumb Code    70  unicode.o(.text)
    ff_wtoupper                              0x0802de1f   Thumb Code    46  unicode.o(.text)
    NVIC_PriorityGroupConfig                 0x0802de59   Thumb Code    10  misc.o(.text)
    NVIC_Init                                0x0802de63   Thumb Code   106  misc.o(.text)
    NVIC_SetVectorTable                      0x0802decd   Thumb Code    14  misc.o(.text)
    NVIC_SystemLPConfig                      0x0802dedb   Thumb Code    34  misc.o(.text)
    SysTick_CLKSourceConfig                  0x0802defd   Thumb Code    40  misc.o(.text)
    ADC_DeInit                               0x0802df39   Thumb Code    22  stm32f4xx_adc.o(.text)
    ADC_Init                                 0x0802df4f   Thumb Code    74  stm32f4xx_adc.o(.text)
    ADC_StructInit                           0x0802df99   Thumb Code    20  stm32f4xx_adc.o(.text)
    ADC_CommonInit                           0x0802dfad   Thumb Code    34  stm32f4xx_adc.o(.text)
    ADC_CommonStructInit                     0x0802dfcf   Thumb Code    12  stm32f4xx_adc.o(.text)
    ADC_Cmd                                  0x0802dfdb   Thumb Code    22  stm32f4xx_adc.o(.text)
    ADC_AnalogWatchdogCmd                    0x0802dff1   Thumb Code    16  stm32f4xx_adc.o(.text)
    ADC_AnalogWatchdogThresholdsConfig       0x0802e001   Thumb Code     6  stm32f4xx_adc.o(.text)
    ADC_AnalogWatchdogSingleChannelConfig    0x0802e007   Thumb Code    16  stm32f4xx_adc.o(.text)
    ADC_TempSensorVrefintCmd                 0x0802e017   Thumb Code    34  stm32f4xx_adc.o(.text)
    ADC_VBATCmd                              0x0802e039   Thumb Code    34  stm32f4xx_adc.o(.text)
    ADC_RegularChannelConfig                 0x0802e05b   Thumb Code   184  stm32f4xx_adc.o(.text)
    ADC_SoftwareStartConv                    0x0802e113   Thumb Code    10  stm32f4xx_adc.o(.text)
    ADC_GetSoftwareStartConvStatus           0x0802e11d   Thumb Code    20  stm32f4xx_adc.o(.text)
    ADC_EOCOnEachRegularChannelCmd           0x0802e131   Thumb Code    22  stm32f4xx_adc.o(.text)
    ADC_ContinuousModeCmd                    0x0802e147   Thumb Code    22  stm32f4xx_adc.o(.text)
    ADC_DiscModeChannelCountConfig           0x0802e15d   Thumb Code    24  stm32f4xx_adc.o(.text)
    ADC_DiscModeCmd                          0x0802e175   Thumb Code    22  stm32f4xx_adc.o(.text)
    ADC_GetConversionValue                   0x0802e18b   Thumb Code     8  stm32f4xx_adc.o(.text)
    ADC_GetMultiModeConversionValue          0x0802e193   Thumb Code     8  stm32f4xx_adc.o(.text)
    ADC_DMACmd                               0x0802e19b   Thumb Code    22  stm32f4xx_adc.o(.text)
    ADC_DMARequestAfterLastTransferCmd       0x0802e1b1   Thumb Code    22  stm32f4xx_adc.o(.text)
    ADC_MultiModeDMARequestAfterLastTransferCmd 0x0802e1c7   Thumb Code    34  stm32f4xx_adc.o(.text)
    ADC_InjectedChannelConfig                0x0802e1e9   Thumb Code   130  stm32f4xx_adc.o(.text)
    ADC_InjectedSequencerLengthConfig        0x0802e26b   Thumb Code    24  stm32f4xx_adc.o(.text)
    ADC_SetInjectedOffset                    0x0802e283   Thumb Code    20  stm32f4xx_adc.o(.text)
    ADC_ExternalTrigInjectedConvConfig       0x0802e297   Thumb Code    16  stm32f4xx_adc.o(.text)
    ADC_ExternalTrigInjectedConvEdgeConfig   0x0802e2a7   Thumb Code    16  stm32f4xx_adc.o(.text)
    ADC_SoftwareStartInjectedConv            0x0802e2b7   Thumb Code    10  stm32f4xx_adc.o(.text)
    ADC_GetSoftwareStartInjectedConvCmdStatus 0x0802e2c1   Thumb Code    20  stm32f4xx_adc.o(.text)
    ADC_AutoInjectedConvCmd                  0x0802e2d5   Thumb Code    22  stm32f4xx_adc.o(.text)
    ADC_InjectedDiscModeCmd                  0x0802e2eb   Thumb Code    22  stm32f4xx_adc.o(.text)
    ADC_GetInjectedConversionValue           0x0802e301   Thumb Code    28  stm32f4xx_adc.o(.text)
    ADC_ITConfig                             0x0802e31d   Thumb Code    56  stm32f4xx_adc.o(.text)
    ADC_GetFlagStatus                        0x0802e355   Thumb Code    18  stm32f4xx_adc.o(.text)
    ADC_ClearFlag                            0x0802e367   Thumb Code     6  stm32f4xx_adc.o(.text)
    ADC_GetITStatus                          0x0802e36d   Thumb Code    38  stm32f4xx_adc.o(.text)
    ADC_ClearITPendingBit                    0x0802e393   Thumb Code    10  stm32f4xx_adc.o(.text)
    DMA_DeInit                               0x0802e39d   Thumb Code   324  stm32f4xx_dma.o(.text)
    DMA_Init                                 0x0802e4e1   Thumb Code    82  stm32f4xx_dma.o(.text)
    DMA_StructInit                           0x0802e533   Thumb Code    34  stm32f4xx_dma.o(.text)
    DMA_Cmd                                  0x0802e555   Thumb Code    22  stm32f4xx_dma.o(.text)
    DMA_PeriphIncOffsetSizeConfig            0x0802e56b   Thumb Code    22  stm32f4xx_dma.o(.text)
    DMA_FlowControllerConfig                 0x0802e581   Thumb Code    22  stm32f4xx_dma.o(.text)
    DMA_SetCurrDataCounter                   0x0802e597   Thumb Code     4  stm32f4xx_dma.o(.text)
    DMA_GetCurrDataCounter                   0x0802e59b   Thumb Code     8  stm32f4xx_dma.o(.text)
    DMA_DoubleBufferModeConfig               0x0802e5a3   Thumb Code    24  stm32f4xx_dma.o(.text)
    DMA_DoubleBufferModeCmd                  0x0802e5bb   Thumb Code    22  stm32f4xx_dma.o(.text)
    DMA_MemoryTargetConfig                   0x0802e5d1   Thumb Code    10  stm32f4xx_dma.o(.text)
    DMA_GetCurrentMemoryTarget               0x0802e5db   Thumb Code    20  stm32f4xx_dma.o(.text)
    DMA_GetCmdStatus                         0x0802e5ef   Thumb Code    20  stm32f4xx_dma.o(.text)
    DMA_GetFIFOStatus                        0x0802e603   Thumb Code    12  stm32f4xx_dma.o(.text)
    DMA_GetFlagStatus                        0x0802e60f   Thumb Code    56  stm32f4xx_dma.o(.text)
    DMA_ClearFlag                            0x0802e647   Thumb Code    40  stm32f4xx_dma.o(.text)
    DMA_ITConfig                             0x0802e66f   Thumb Code    58  stm32f4xx_dma.o(.text)
    DMA_GetITStatus                          0x0802e6a9   Thumb Code    84  stm32f4xx_dma.o(.text)
    DMA_ClearITPendingBit                    0x0802e6fd   Thumb Code    40  stm32f4xx_dma.o(.text)
    EXTI_DeInit                              0x0802e745   Thumb Code    28  stm32f4xx_exti.o(.text)
    EXTI_Init                                0x0802e761   Thumb Code   142  stm32f4xx_exti.o(.text)
    EXTI_StructInit                          0x0802e7ef   Thumb Code    16  stm32f4xx_exti.o(.text)
    EXTI_GenerateSWInterrupt                 0x0802e7ff   Thumb Code    16  stm32f4xx_exti.o(.text)
    EXTI_GetFlagStatus                       0x0802e80f   Thumb Code    22  stm32f4xx_exti.o(.text)
    EXTI_ClearFlag                           0x0802e825   Thumb Code     8  stm32f4xx_exti.o(.text)
    EXTI_GetITStatus                         0x0802e82d   Thumb Code    22  stm32f4xx_exti.o(.text)
    EXTI_ClearITPendingBit                   0x0802e843   Thumb Code     8  stm32f4xx_exti.o(.text)
    FLASH_SetLatency                         0x0802e855   Thumb Code     6  stm32f4xx_flash.o(.text)
    FLASH_PrefetchBufferCmd                  0x0802e85b   Thumb Code    30  stm32f4xx_flash.o(.text)
    FLASH_InstructionCacheCmd                0x0802e879   Thumb Code    30  stm32f4xx_flash.o(.text)
    FLASH_DataCacheCmd                       0x0802e897   Thumb Code    30  stm32f4xx_flash.o(.text)
    FLASH_InstructionCacheReset              0x0802e8b5   Thumb Code    14  stm32f4xx_flash.o(.text)
    FLASH_DataCacheReset                     0x0802e8c3   Thumb Code    14  stm32f4xx_flash.o(.text)
    FLASH_Unlock                             0x0802e8d1   Thumb Code    26  stm32f4xx_flash.o(.text)
    FLASH_Lock                               0x0802e8eb   Thumb Code    18  stm32f4xx_flash.o(.text)
    FLASH_GetStatus                          0x0802e8fd   Thumb Code    90  stm32f4xx_flash.o(.text)
    FLASH_WaitForLastOperation               0x0802e957   Thumb Code    34  stm32f4xx_flash.o(.text)
    FLASH_EraseSector                        0x0802e979   Thumb Code   140  stm32f4xx_flash.o(.text)
    FLASH_EraseAllSectors                    0x0802ea05   Thumb Code   112  stm32f4xx_flash.o(.text)
    FLASH_EraseAllBank1Sectors               0x0802ea75   Thumb Code   112  stm32f4xx_flash.o(.text)
    FLASH_EraseAllBank2Sectors               0x0802eae5   Thumb Code   112  stm32f4xx_flash.o(.text)
    FLASH_ProgramDoubleWord                  0x0802eb55   Thumb Code    86  stm32f4xx_flash.o(.text)
    FLASH_ProgramWord                        0x0802ebab   Thumb Code    82  stm32f4xx_flash.o(.text)
    FLASH_ProgramHalfWord                    0x0802ebfd   Thumb Code    96  stm32f4xx_flash.o(.text)
    FLASH_ProgramByte                        0x0802ec5d   Thumb Code    70  stm32f4xx_flash.o(.text)
    FLASH_OB_Unlock                          0x0802eca3   Thumb Code    26  stm32f4xx_flash.o(.text)
    FLASH_OB_Lock                            0x0802ecbd   Thumb Code    18  stm32f4xx_flash.o(.text)
    FLASH_OB_WRPConfig                       0x0802eccf   Thumb Code    54  stm32f4xx_flash.o(.text)
    FLASH_OB_WRP1Config                      0x0802ed05   Thumb Code    54  stm32f4xx_flash.o(.text)
    FLASH_OB_PCROPSelectionConfig            0x0802ed3b   Thumb Code    24  stm32f4xx_flash.o(.text)
    FLASH_OB_PCROPConfig                     0x0802ed53   Thumb Code    54  stm32f4xx_flash.o(.text)
    FLASH_OB_PCROP1Config                    0x0802ed89   Thumb Code    54  stm32f4xx_flash.o(.text)
    FLASH_OB_RDPConfig                       0x0802edbf   Thumb Code    24  stm32f4xx_flash.o(.text)
    FLASH_OB_UserConfig                      0x0802edd7   Thumb Code    46  stm32f4xx_flash.o(.text)
    FLASH_OB_BootConfig                      0x0802ee05   Thumb Code    26  stm32f4xx_flash.o(.text)
    FLASH_OB_BORConfig                       0x0802ee1f   Thumb Code    26  stm32f4xx_flash.o(.text)
    FLASH_OB_Launch                          0x0802ee39   Thumb Code    30  stm32f4xx_flash.o(.text)
    FLASH_OB_GetUser                         0x0802ee57   Thumb Code    12  stm32f4xx_flash.o(.text)
    FLASH_OB_GetWRP                          0x0802ee63   Thumb Code     8  stm32f4xx_flash.o(.text)
    FLASH_OB_GetWRP1                         0x0802ee6b   Thumb Code     8  stm32f4xx_flash.o(.text)
    FLASH_OB_GetPCROP                        0x0802ee73   Thumb Code     8  stm32f4xx_flash.o(.text)
    FLASH_OB_GetPCROP1                       0x0802ee7b   Thumb Code     8  stm32f4xx_flash.o(.text)
    FLASH_OB_GetRDP                          0x0802ee83   Thumb Code    20  stm32f4xx_flash.o(.text)
    FLASH_OB_GetBOR                          0x0802ee97   Thumb Code    12  stm32f4xx_flash.o(.text)
    FLASH_ITConfig                           0x0802eea3   Thumb Code    26  stm32f4xx_flash.o(.text)
    FLASH_GetFlagStatus                      0x0802eebd   Thumb Code    22  stm32f4xx_flash.o(.text)
    FLASH_ClearFlag                          0x0802eed3   Thumb Code     8  stm32f4xx_flash.o(.text)
    GPIO_DeInit                              0x0802eee9   Thumb Code   268  stm32f4xx_gpio.o(.text)
    GPIO_Init                                0x0802eff5   Thumb Code   144  stm32f4xx_gpio.o(.text)
    GPIO_StructInit                          0x0802f085   Thumb Code    18  stm32f4xx_gpio.o(.text)
    GPIO_PinLockConfig                       0x0802f097   Thumb Code    34  stm32f4xx_gpio.o(.text)
    GPIO_ReadInputDataBit                    0x0802f0b9   Thumb Code    18  stm32f4xx_gpio.o(.text)
    GPIO_ReadInputData                       0x0802f0cb   Thumb Code     8  stm32f4xx_gpio.o(.text)
    GPIO_ReadOutputDataBit                   0x0802f0d3   Thumb Code    18  stm32f4xx_gpio.o(.text)
    GPIO_ReadOutputData                      0x0802f0e5   Thumb Code     8  stm32f4xx_gpio.o(.text)
    GPIO_SetBits                             0x0802f0ed   Thumb Code     4  stm32f4xx_gpio.o(.text)
    GPIO_ResetBits                           0x0802f0f1   Thumb Code     4  stm32f4xx_gpio.o(.text)
    GPIO_WriteBit                            0x0802f0f5   Thumb Code    10  stm32f4xx_gpio.o(.text)
    GPIO_Write                               0x0802f0ff   Thumb Code     4  stm32f4xx_gpio.o(.text)
    GPIO_ToggleBits                          0x0802f103   Thumb Code     8  stm32f4xx_gpio.o(.text)
    GPIO_PinAFConfig                         0x0802f10b   Thumb Code    70  stm32f4xx_gpio.o(.text)
    IWDG_WriteAccessCmd                      0x0802f17d   Thumb Code     6  stm32f4xx_iwdg.o(.text)
    IWDG_SetPrescaler                        0x0802f183   Thumb Code     6  stm32f4xx_iwdg.o(.text)
    IWDG_SetReload                           0x0802f189   Thumb Code     6  stm32f4xx_iwdg.o(.text)
    IWDG_ReloadCounter                       0x0802f18f   Thumb Code    10  stm32f4xx_iwdg.o(.text)
    IWDG_Enable                              0x0802f199   Thumb Code    10  stm32f4xx_iwdg.o(.text)
    IWDG_GetFlagStatus                       0x0802f1a3   Thumb Code    20  stm32f4xx_iwdg.o(.text)
    PWR_DeInit                               0x0802f1bd   Thumb Code    22  stm32f4xx_pwr.o(.text)
    PWR_BackupAccessCmd                      0x0802f1d3   Thumb Code     6  stm32f4xx_pwr.o(.text)
    PWR_PVDLevelConfig                       0x0802f1d9   Thumb Code    18  stm32f4xx_pwr.o(.text)
    PWR_PVDCmd                               0x0802f1eb   Thumb Code     6  stm32f4xx_pwr.o(.text)
    PWR_WakeUpPinCmd                         0x0802f1f1   Thumb Code     8  stm32f4xx_pwr.o(.text)
    PWR_BackupRegulatorCmd                   0x0802f1f9   Thumb Code     8  stm32f4xx_pwr.o(.text)
    PWR_MainRegulatorModeConfig              0x0802f201   Thumb Code    18  stm32f4xx_pwr.o(.text)
    PWR_OverDriveCmd                         0x0802f213   Thumb Code     6  stm32f4xx_pwr.o(.text)
    PWR_OverDriveSWCmd                       0x0802f219   Thumb Code     6  stm32f4xx_pwr.o(.text)
    PWR_UnderDriveCmd                        0x0802f21f   Thumb Code    30  stm32f4xx_pwr.o(.text)
    PWR_MainRegulatorLowVoltageCmd           0x0802f23d   Thumb Code    18  stm32f4xx_pwr.o(.text)
    PWR_LowRegulatorLowVoltageCmd            0x0802f24f   Thumb Code    18  stm32f4xx_pwr.o(.text)
    PWR_FlashPowerDownCmd                    0x0802f261   Thumb Code     6  stm32f4xx_pwr.o(.text)
    PWR_EnterSTOPMode                        0x0802f267   Thumb Code    58  stm32f4xx_pwr.o(.text)
    PWR_EnterUnderDriveSTOPMode              0x0802f2a1   Thumb Code    58  stm32f4xx_pwr.o(.text)
    PWR_EnterSTANDBYMode                     0x0802f2db   Thumb Code    32  stm32f4xx_pwr.o(.text)
    PWR_GetFlagStatus                        0x0802f2fb   Thumb Code    20  stm32f4xx_pwr.o(.text)
    PWR_ClearFlag                            0x0802f30f   Thumb Code    14  stm32f4xx_pwr.o(.text)
    RCC_DeInit                               0x0802f329   Thumb Code    82  stm32f4xx_rcc.o(.text)
    RCC_HSEConfig                            0x0802f37b   Thumb Code    14  stm32f4xx_rcc.o(.text)
    RCC_GetFlagStatus                        0x0802f389   Thumb Code    60  stm32f4xx_rcc.o(.text)
    RCC_WaitForHSEStartUp                    0x0802f3c5   Thumb Code    56  stm32f4xx_rcc.o(.text)
    RCC_AdjustHSICalibrationValue            0x0802f3fd   Thumb Code    20  stm32f4xx_rcc.o(.text)
    RCC_HSICmd                               0x0802f411   Thumb Code     6  stm32f4xx_rcc.o(.text)
    RCC_LSEConfig                            0x0802f417   Thumb Code    46  stm32f4xx_rcc.o(.text)
    RCC_LSICmd                               0x0802f445   Thumb Code     6  stm32f4xx_rcc.o(.text)
    RCC_PLLConfig                            0x0802f44b   Thumb Code    32  stm32f4xx_rcc.o(.text)
    RCC_PLLCmd                               0x0802f46b   Thumb Code     6  stm32f4xx_rcc.o(.text)
    RCC_PLLI2SConfig                         0x0802f471   Thumb Code    18  stm32f4xx_rcc.o(.text)
    RCC_PLLI2SCmd                            0x0802f483   Thumb Code     6  stm32f4xx_rcc.o(.text)
    RCC_PLLSAIConfig                         0x0802f489   Thumb Code    20  stm32f4xx_rcc.o(.text)
    RCC_PLLSAICmd                            0x0802f49d   Thumb Code     6  stm32f4xx_rcc.o(.text)
    RCC_ClockSecuritySystemCmd               0x0802f4a3   Thumb Code     6  stm32f4xx_rcc.o(.text)
    RCC_MCO1Config                           0x0802f4a9   Thumb Code    28  stm32f4xx_rcc.o(.text)
    RCC_MCO2Config                           0x0802f4c5   Thumb Code    28  stm32f4xx_rcc.o(.text)
    RCC_SYSCLKConfig                         0x0802f4e1   Thumb Code    20  stm32f4xx_rcc.o(.text)
    RCC_GetSYSCLKSource                      0x0802f4f5   Thumb Code    12  stm32f4xx_rcc.o(.text)
    RCC_HCLKConfig                           0x0802f501   Thumb Code    20  stm32f4xx_rcc.o(.text)
    RCC_PCLK1Config                          0x0802f515   Thumb Code    20  stm32f4xx_rcc.o(.text)
    RCC_PCLK2Config                          0x0802f529   Thumb Code    22  stm32f4xx_rcc.o(.text)
    RCC_GetClocksFreq                        0x0802f53f   Thumb Code   222  stm32f4xx_rcc.o(.text)
    RCC_RTCCLKConfig                         0x0802f61d   Thumb Code    54  stm32f4xx_rcc.o(.text)
    RCC_RTCCLKCmd                            0x0802f653   Thumb Code     8  stm32f4xx_rcc.o(.text)
    RCC_BackupResetCmd                       0x0802f65b   Thumb Code     8  stm32f4xx_rcc.o(.text)
    RCC_I2SCLKConfig                         0x0802f663   Thumb Code     6  stm32f4xx_rcc.o(.text)
    RCC_SAIBlockACLKConfig                   0x0802f669   Thumb Code    20  stm32f4xx_rcc.o(.text)
    RCC_SAIBlockBCLKConfig                   0x0802f67d   Thumb Code    20  stm32f4xx_rcc.o(.text)
    RCC_SAIPLLI2SClkDivConfig                0x0802f691   Thumb Code    26  stm32f4xx_rcc.o(.text)
    RCC_SAIPLLSAIClkDivConfig                0x0802f6ab   Thumb Code    28  stm32f4xx_rcc.o(.text)
    RCC_LTDCCLKDivConfig                     0x0802f6c7   Thumb Code    20  stm32f4xx_rcc.o(.text)
    RCC_TIMCLKPresConfig                     0x0802f6db   Thumb Code     6  stm32f4xx_rcc.o(.text)
    RCC_AHB1PeriphClockCmd                   0x0802f6e1   Thumb Code    34  stm32f4xx_rcc.o(.text)
    RCC_AHB2PeriphClockCmd                   0x0802f703   Thumb Code    78  stm32f4xx_rcc.o(.text)
    RCC_APB1PeriphClockCmd                   0x0802f751   Thumb Code    34  stm32f4xx_rcc.o(.text)
    RCC_APB2PeriphClockCmd                   0x0802f773   Thumb Code    34  stm32f4xx_rcc.o(.text)
    RCC_AHB1PeriphResetCmd                   0x0802f795   Thumb Code    34  stm32f4xx_rcc.o(.text)
    RCC_AHB2PeriphResetCmd                   0x0802f7b7   Thumb Code    34  stm32f4xx_rcc.o(.text)
    RCC_APB1PeriphResetCmd                   0x0802f7d9   Thumb Code    34  stm32f4xx_rcc.o(.text)
    RCC_APB2PeriphResetCmd                   0x0802f7fb   Thumb Code    34  stm32f4xx_rcc.o(.text)
    RCC_AHB1PeriphClockLPModeCmd             0x0802f81d   Thumb Code    34  stm32f4xx_rcc.o(.text)
    RCC_AHB2PeriphClockLPModeCmd             0x0802f83f   Thumb Code    34  stm32f4xx_rcc.o(.text)
    RCC_APB1PeriphClockLPModeCmd             0x0802f861   Thumb Code    34  stm32f4xx_rcc.o(.text)
    RCC_APB2PeriphClockLPModeCmd             0x0802f883   Thumb Code    34  stm32f4xx_rcc.o(.text)
    RCC_LSEModeConfig                        0x0802f8a5   Thumb Code    40  stm32f4xx_rcc.o(.text)
    RCC_ITConfig                             0x0802f8cd   Thumb Code    34  stm32f4xx_rcc.o(.text)
    RCC_ClearFlag                            0x0802f8ef   Thumb Code    18  stm32f4xx_rcc.o(.text)
    RCC_GetITStatus                          0x0802f901   Thumb Code    22  stm32f4xx_rcc.o(.text)
    RCC_ClearITPendingBit                    0x0802f917   Thumb Code     8  stm32f4xx_rcc.o(.text)
    RTC_WaitForSynchro                       0x0802f925   Thumb Code    92  stm32f4xx_rtc.o(.text)
    RTC_EnterInitMode                        0x0802f981   Thumb Code    84  stm32f4xx_rtc.o(.text)
    RTC_DeInit                               0x0802f9d5   Thumb Code   204  stm32f4xx_rtc.o(.text)
    RTC_ExitInitMode                         0x0802faa1   Thumb Code    18  stm32f4xx_rtc.o(.text)
    RTC_Init                                 0x0802fab3   Thumb Code    94  stm32f4xx_rtc.o(.text)
    RTC_StructInit                           0x0802fb11   Thumb Code    14  stm32f4xx_rtc.o(.text)
    RTC_WriteProtectionCmd                   0x0802fb1f   Thumb Code    22  stm32f4xx_rtc.o(.text)
    RTC_RefClockCmd                          0x0802fb35   Thumb Code    76  stm32f4xx_rtc.o(.text)
    RTC_BypassShadowCmd                      0x0802fb81   Thumb Code    54  stm32f4xx_rtc.o(.text)
    RTC_SetTime                              0x0802fbe9   Thumb Code   200  stm32f4xx_rtc.o(.text)
    RTC_TimeStructInit                       0x0802fcb1   Thumb Code    12  stm32f4xx_rtc.o(.text)
    RTC_GetTime                              0x0802fcbd   Thumb Code    74  stm32f4xx_rtc.o(.text)
    RTC_GetSubSecond                         0x0802fd07   Thumb Code    30  stm32f4xx_rtc.o(.text)
    RTC_SetDate                              0x0802fd25   Thumb Code   190  stm32f4xx_rtc.o(.text)
    RTC_DateStructInit                       0x0802fde3   Thumb Code    14  stm32f4xx_rtc.o(.text)
    RTC_GetDate                              0x0802fdf1   Thumb Code    70  stm32f4xx_rtc.o(.text)
    RTC_SetAlarm                             0x0802fe37   Thumb Code   230  stm32f4xx_rtc.o(.text)
    RTC_AlarmStructInit                      0x0802ff1d   Thumb Code    22  stm32f4xx_rtc.o(.text)
    RTC_GetAlarm                             0x0802ff33   Thumb Code   114  stm32f4xx_rtc.o(.text)
    RTC_AlarmCmd                             0x0802ffa5   Thumb Code   112  stm32f4xx_rtc.o(.text)
    RTC_AlarmSubSecondConfig                 0x08030015   Thumb Code    46  stm32f4xx_rtc.o(.text)
    RTC_GetAlarmSubSecond                    0x08030043   Thumb Code    34  stm32f4xx_rtc.o(.text)
    RTC_WakeUpClockConfig                    0x08030065   Thumb Code    42  stm32f4xx_rtc.o(.text)
    RTC_SetWakeUpCounter                     0x0803008f   Thumb Code    22  stm32f4xx_rtc.o(.text)
    RTC_GetWakeUpCounter                     0x080300a5   Thumb Code    10  stm32f4xx_rtc.o(.text)
    RTC_WakeUpCmd                            0x080300af   Thumb Code   116  stm32f4xx_rtc.o(.text)
    RTC_DayLightSavingConfig                 0x08030123   Thumb Code    50  stm32f4xx_rtc.o(.text)
    RTC_GetStoreOperation                    0x08030155   Thumb Code    12  stm32f4xx_rtc.o(.text)
    RTC_OutputConfig                         0x08030161   Thumb Code    60  stm32f4xx_rtc.o(.text)
    RTC_CoarseCalibConfig                    0x0803019d   Thumb Code    52  stm32f4xx_rtc.o(.text)
    RTC_CoarseCalibCmd                       0x080301d1   Thumb Code    76  stm32f4xx_rtc.o(.text)
    RTC_CalibOutputCmd                       0x0803021d   Thumb Code    54  stm32f4xx_rtc.o(.text)
    RTC_CalibOutputConfig                    0x08030253   Thumb Code    42  stm32f4xx_rtc.o(.text)
    RTC_SmoothCalibConfig                    0x0803027d   Thumb Code    90  stm32f4xx_rtc.o(.text)
    RTC_TimeStampCmd                         0x080302d7   Thumb Code    54  stm32f4xx_rtc.o(.text)
    RTC_GetTimeStamp                         0x0803030d   Thumb Code   144  stm32f4xx_rtc.o(.text)
    RTC_GetTimeStampSubSecond                0x0803039d   Thumb Code     8  stm32f4xx_rtc.o(.text)
    RTC_TamperTriggerConfig                  0x080303a5   Thumb Code    38  stm32f4xx_rtc.o(.text)
    RTC_TamperCmd                            0x080303cb   Thumb Code    34  stm32f4xx_rtc.o(.text)
    RTC_TamperFilterConfig                   0x080303ed   Thumb Code    26  stm32f4xx_rtc.o(.text)
    RTC_TamperSamplingFreqConfig             0x08030407   Thumb Code    26  stm32f4xx_rtc.o(.text)
    RTC_TamperPinsPrechargeDuration          0x08030421   Thumb Code    26  stm32f4xx_rtc.o(.text)
    RTC_TimeStampOnTamperDetectionCmd        0x0803043b   Thumb Code    38  stm32f4xx_rtc.o(.text)
    RTC_TamperPullUpCmd                      0x08030461   Thumb Code    38  stm32f4xx_rtc.o(.text)
    RTC_WriteBackupRegister                  0x08030487   Thumb Code    26  stm32f4xx_rtc.o(.text)
    RTC_ReadBackupRegister                   0x080304a1   Thumb Code    28  stm32f4xx_rtc.o(.text)
    RTC_TamperPinSelection                   0x080304bd   Thumb Code    26  stm32f4xx_rtc.o(.text)
    RTC_TimeStampPinSelection                0x080304d7   Thumb Code    26  stm32f4xx_rtc.o(.text)
    RTC_OutputTypeConfig                     0x080304f1   Thumb Code    26  stm32f4xx_rtc.o(.text)
    RTC_SynchroShiftConfig                   0x0803050b   Thumb Code   130  stm32f4xx_rtc.o(.text)
    RTC_ITConfig                             0x0803058d   Thumb Code    94  stm32f4xx_rtc.o(.text)
    RTC_GetFlagStatus                        0x080305eb   Thumb Code    34  stm32f4xx_rtc.o(.text)
    RTC_ClearFlag                            0x0803060d   Thumb Code    28  stm32f4xx_rtc.o(.text)
    RTC_GetITStatus                          0x08030629   Thumb Code    60  stm32f4xx_rtc.o(.text)
    RTC_ClearITPendingBit                    0x08030665   Thumb Code    32  stm32f4xx_rtc.o(.text)
    SDIO_DeInit                              0x0803068d   Thumb Code    22  stm32f4xx_sdio.o(.text)
    SDIO_Init                                0x080306a3   Thumb Code    42  stm32f4xx_sdio.o(.text)
    SDIO_StructInit                          0x080306cd   Thumb Code    16  stm32f4xx_sdio.o(.text)
    SDIO_ClockCmd                            0x080306dd   Thumb Code     6  stm32f4xx_sdio.o(.text)
    SDIO_SetPowerState                       0x080306e3   Thumb Code     8  stm32f4xx_sdio.o(.text)
    SDIO_GetPowerState                       0x080306eb   Thumb Code    12  stm32f4xx_sdio.o(.text)
    SDIO_SendCommand                         0x080306f7   Thumb Code    42  stm32f4xx_sdio.o(.text)
    SDIO_CmdStructInit                       0x08030721   Thumb Code    14  stm32f4xx_sdio.o(.text)
    SDIO_GetCommandResponse                  0x0803072f   Thumb Code    10  stm32f4xx_sdio.o(.text)
    SDIO_GetResponse                         0x08030739   Thumb Code    22  stm32f4xx_sdio.o(.text)
    SDIO_DataConfig                          0x0803074f   Thumb Code    48  stm32f4xx_sdio.o(.text)
    SDIO_DataStructInit                      0x0803077f   Thumb Code    20  stm32f4xx_sdio.o(.text)
    SDIO_GetDataCounter                      0x08030793   Thumb Code     8  stm32f4xx_sdio.o(.text)
    SDIO_ReadData                            0x0803079b   Thumb Code     8  stm32f4xx_sdio.o(.text)
    SDIO_WriteData                           0x080307a3   Thumb Code     8  stm32f4xx_sdio.o(.text)
    SDIO_GetFIFOCount                        0x080307ab   Thumb Code     8  stm32f4xx_sdio.o(.text)
    SDIO_StartSDIOReadWait                   0x080307b3   Thumb Code     6  stm32f4xx_sdio.o(.text)
    SDIO_StopSDIOReadWait                    0x080307b9   Thumb Code     8  stm32f4xx_sdio.o(.text)
    SDIO_SetSDIOReadWaitMode                 0x080307c1   Thumb Code     8  stm32f4xx_sdio.o(.text)
    SDIO_SetSDIOOperation                    0x080307c9   Thumb Code     8  stm32f4xx_sdio.o(.text)
    SDIO_SendSDIOSuspendCmd                  0x080307d1   Thumb Code     6  stm32f4xx_sdio.o(.text)
    SDIO_CommandCompletionCmd                0x080307d7   Thumb Code     8  stm32f4xx_sdio.o(.text)
    SDIO_CEATAITCmd                          0x080307df   Thumb Code    12  stm32f4xx_sdio.o(.text)
    SDIO_SendCEATACmd                        0x080307eb   Thumb Code     8  stm32f4xx_sdio.o(.text)
    SDIO_DMACmd                              0x080307f3   Thumb Code     8  stm32f4xx_sdio.o(.text)
    SDIO_ITConfig                            0x080307fb   Thumb Code    34  stm32f4xx_sdio.o(.text)
    SDIO_GetFlagStatus                       0x0803081d   Thumb Code    22  stm32f4xx_sdio.o(.text)
    SDIO_ClearFlag                           0x08030833   Thumb Code     8  stm32f4xx_sdio.o(.text)
    SDIO_GetITStatus                         0x0803083b   Thumb Code    22  stm32f4xx_sdio.o(.text)
    SDIO_ClearITPendingBit                   0x08030851   Thumb Code     8  stm32f4xx_sdio.o(.text)
    SYSCFG_DeInit                            0x08030869   Thumb Code    22  stm32f4xx_syscfg.o(.text)
    SYSCFG_MemoryRemapConfig                 0x0803087f   Thumb Code     6  stm32f4xx_syscfg.o(.text)
    SYSCFG_MemorySwappingBank                0x08030885   Thumb Code     6  stm32f4xx_syscfg.o(.text)
    SYSCFG_EXTILineConfig                    0x0803088b   Thumb Code    66  stm32f4xx_syscfg.o(.text)
    SYSCFG_ETH_MediaInterfaceConfig          0x080308cd   Thumb Code     8  stm32f4xx_syscfg.o(.text)
    SYSCFG_CompensationCellCmd               0x080308d5   Thumb Code     6  stm32f4xx_syscfg.o(.text)
    SYSCFG_GetCompensationCellStatus         0x080308db   Thumb Code    22  stm32f4xx_syscfg.o(.text)
    TIM_DeInit                               0x080308fd   Thumb Code   346  stm32f4xx_tim.o(.text)
    TIM_TimeBaseInit                         0x08030a57   Thumb Code   104  stm32f4xx_tim.o(.text)
    TIM_TimeBaseStructInit                   0x08030abf   Thumb Code    18  stm32f4xx_tim.o(.text)
    TIM_PrescalerConfig                      0x08030ad1   Thumb Code     6  stm32f4xx_tim.o(.text)
    TIM_CounterModeConfig                    0x08030ad7   Thumb Code    18  stm32f4xx_tim.o(.text)
    TIM_SetCounter                           0x08030ae9   Thumb Code     4  stm32f4xx_tim.o(.text)
    TIM_SetAutoreload                        0x08030aed   Thumb Code     4  stm32f4xx_tim.o(.text)
    TIM_GetCounter                           0x08030af1   Thumb Code     6  stm32f4xx_tim.o(.text)
    TIM_GetPrescaler                         0x08030af7   Thumb Code     6  stm32f4xx_tim.o(.text)
    TIM_UpdateDisableConfig                  0x08030afd   Thumb Code    24  stm32f4xx_tim.o(.text)
    TIM_UpdateRequestConfig                  0x08030b15   Thumb Code    24  stm32f4xx_tim.o(.text)
    TIM_ARRPreloadConfig                     0x08030b2d   Thumb Code    24  stm32f4xx_tim.o(.text)
    TIM_SelectOnePulseMode                   0x08030b45   Thumb Code    18  stm32f4xx_tim.o(.text)
    TIM_SetClockDivision                     0x08030b57   Thumb Code    18  stm32f4xx_tim.o(.text)
    TIM_Cmd                                  0x08030b69   Thumb Code    24  stm32f4xx_tim.o(.text)
    TIM_OC1Init                              0x08030b81   Thumb Code   114  stm32f4xx_tim.o(.text)
    TIM_OC2Init                              0x08030bf3   Thumb Code   154  stm32f4xx_tim.o(.text)
    TIM_OC3Init                              0x08030c8d   Thumb Code   204  stm32f4xx_tim.o(.text)
    TIM_OC4Init                              0x08030d59   Thumb Code   112  stm32f4xx_tim.o(.text)
    TIM_OCStructInit                         0x08030dc9   Thumb Code    20  stm32f4xx_tim.o(.text)
    TIM_SelectOCxM                           0x08030ddd   Thumb Code    86  stm32f4xx_tim.o(.text)
    TIM_SetCompare1                          0x08030e33   Thumb Code     4  stm32f4xx_tim.o(.text)
    TIM_SetCompare2                          0x08030e37   Thumb Code     4  stm32f4xx_tim.o(.text)
    TIM_SetCompare3                          0x08030e3b   Thumb Code     4  stm32f4xx_tim.o(.text)
    TIM_SetCompare4                          0x08030e3f   Thumb Code     4  stm32f4xx_tim.o(.text)
    TIM_ForcedOC1Config                      0x08030e43   Thumb Code    18  stm32f4xx_tim.o(.text)
    TIM_ForcedOC2Config                      0x08030e55   Thumb Code    26  stm32f4xx_tim.o(.text)
    TIM_ForcedOC3Config                      0x08030e6f   Thumb Code    18  stm32f4xx_tim.o(.text)
    TIM_ForcedOC4Config                      0x08030e81   Thumb Code    26  stm32f4xx_tim.o(.text)
    TIM_OC1PreloadConfig                     0x08030e9b   Thumb Code    18  stm32f4xx_tim.o(.text)
    TIM_OC2PreloadConfig                     0x08030ead   Thumb Code    26  stm32f4xx_tim.o(.text)
    TIM_OC3PreloadConfig                     0x08030ec7   Thumb Code    18  stm32f4xx_tim.o(.text)
    TIM_OC4PreloadConfig                     0x08030ed9   Thumb Code    26  stm32f4xx_tim.o(.text)
    TIM_OC1FastConfig                        0x08030ef3   Thumb Code    18  stm32f4xx_tim.o(.text)
    TIM_OC2FastConfig                        0x08030f05   Thumb Code    26  stm32f4xx_tim.o(.text)
    TIM_OC3FastConfig                        0x08030f1f   Thumb Code    18  stm32f4xx_tim.o(.text)
    TIM_OC4FastConfig                        0x08030f31   Thumb Code    26  stm32f4xx_tim.o(.text)
    TIM_ClearOC1Ref                          0x08030f4b   Thumb Code    18  stm32f4xx_tim.o(.text)
    TIM_ClearOC2Ref                          0x08030f5d   Thumb Code    24  stm32f4xx_tim.o(.text)
    TIM_ClearOC3Ref                          0x08030f75   Thumb Code    18  stm32f4xx_tim.o(.text)
    TIM_ClearOC4Ref                          0x08030f87   Thumb Code    24  stm32f4xx_tim.o(.text)
    TIM_OC1PolarityConfig                    0x08030f9f   Thumb Code    18  stm32f4xx_tim.o(.text)
    TIM_OC1NPolarityConfig                   0x08030fb1   Thumb Code    18  stm32f4xx_tim.o(.text)
    TIM_OC2PolarityConfig                    0x08030fc3   Thumb Code    26  stm32f4xx_tim.o(.text)
    TIM_OC2NPolarityConfig                   0x08030fdd   Thumb Code    26  stm32f4xx_tim.o(.text)
    TIM_OC3PolarityConfig                    0x08030ff7   Thumb Code    26  stm32f4xx_tim.o(.text)
    TIM_OC3NPolarityConfig                   0x08031011   Thumb Code    26  stm32f4xx_tim.o(.text)
    TIM_OC4PolarityConfig                    0x0803102b   Thumb Code    26  stm32f4xx_tim.o(.text)
    TIM_CCxCmd                               0x08031045   Thumb Code    30  stm32f4xx_tim.o(.text)
    TIM_CCxNCmd                              0x08031063   Thumb Code    30  stm32f4xx_tim.o(.text)
    TIM_SetIC4Prescaler                      0x08031081   Thumb Code    26  stm32f4xx_tim.o(.text)
    TIM_SetIC3Prescaler                      0x080310eb   Thumb Code    18  stm32f4xx_tim.o(.text)
    TIM_SetIC2Prescaler                      0x08031145   Thumb Code    26  stm32f4xx_tim.o(.text)
    TIM_SetIC1Prescaler                      0x080311b9   Thumb Code    18  stm32f4xx_tim.o(.text)
    TIM_ICInit                               0x08031205   Thumb Code   110  stm32f4xx_tim.o(.text)
    TIM_ICStructInit                         0x08031273   Thumb Code    18  stm32f4xx_tim.o(.text)
    TIM_PWMIConfig                           0x08031285   Thumb Code   124  stm32f4xx_tim.o(.text)
    TIM_GetCapture1                          0x08031301   Thumb Code     6  stm32f4xx_tim.o(.text)
    TIM_GetCapture2                          0x08031307   Thumb Code     6  stm32f4xx_tim.o(.text)
    TIM_GetCapture3                          0x0803130d   Thumb Code     6  stm32f4xx_tim.o(.text)
    TIM_GetCapture4                          0x08031313   Thumb Code     6  stm32f4xx_tim.o(.text)
    TIM_BDTRConfig                           0x08031319   Thumb Code    32  stm32f4xx_tim.o(.text)
    TIM_BDTRStructInit                       0x08031339   Thumb Code    18  stm32f4xx_tim.o(.text)
    TIM_CtrlPWMOutputs                       0x0803134b   Thumb Code    30  stm32f4xx_tim.o(.text)
    TIM_SelectCOM                            0x08031369   Thumb Code    24  stm32f4xx_tim.o(.text)
    TIM_CCPreloadControl                     0x08031381   Thumb Code    24  stm32f4xx_tim.o(.text)
    TIM_ITConfig                             0x08031399   Thumb Code    18  stm32f4xx_tim.o(.text)
    TIM_GenerateEvent                        0x080313ab   Thumb Code     4  stm32f4xx_tim.o(.text)
    TIM_GetFlagStatus                        0x080313af   Thumb Code    18  stm32f4xx_tim.o(.text)
    TIM_ClearFlag                            0x080313c1   Thumb Code     6  stm32f4xx_tim.o(.text)
    TIM_GetITStatus                          0x080313c7   Thumb Code    34  stm32f4xx_tim.o(.text)
    TIM_ClearITPendingBit                    0x080313e9   Thumb Code     6  stm32f4xx_tim.o(.text)
    TIM_DMAConfig                            0x080313ef   Thumb Code    10  stm32f4xx_tim.o(.text)
    TIM_DMACmd                               0x080313f9   Thumb Code    18  stm32f4xx_tim.o(.text)
    TIM_SelectCCDMA                          0x0803140b   Thumb Code    24  stm32f4xx_tim.o(.text)
    TIM_InternalClockConfig                  0x08031423   Thumb Code    12  stm32f4xx_tim.o(.text)
    TIM_SelectInputTrigger                   0x0803142f   Thumb Code    18  stm32f4xx_tim.o(.text)
    TIM_ITRxExternalClockConfig              0x08031441   Thumb Code    24  stm32f4xx_tim.o(.text)
    TIM_TIxExternalClockConfig               0x08031459   Thumb Code    62  stm32f4xx_tim.o(.text)
    TIM_ETRConfig                            0x08031497   Thumb Code    28  stm32f4xx_tim.o(.text)
    TIM_ETRClockMode1Config                  0x080314b3   Thumb Code    54  stm32f4xx_tim.o(.text)
    TIM_ETRClockMode2Config                  0x080314e9   Thumb Code    32  stm32f4xx_tim.o(.text)
    TIM_SelectOutputTrigger                  0x08031509   Thumb Code    18  stm32f4xx_tim.o(.text)
    TIM_SelectSlaveMode                      0x0803151b   Thumb Code    18  stm32f4xx_tim.o(.text)
    TIM_SelectMasterSlaveMode                0x0803152d   Thumb Code    18  stm32f4xx_tim.o(.text)
    TIM_EncoderInterfaceConfig               0x0803153f   Thumb Code    66  stm32f4xx_tim.o(.text)
    TIM_SelectHallSensor                     0x08031581   Thumb Code    24  stm32f4xx_tim.o(.text)
    TIM_RemapConfig                          0x08031599   Thumb Code     6  stm32f4xx_tim.o(.text)
    USART_DeInit                             0x080315a1   Thumb Code   206  stm32f4xx_usart.o(.text)
    USART_Init                               0x0803166f   Thumb Code   204  stm32f4xx_usart.o(.text)
    USART_StructInit                         0x0803173b   Thumb Code    24  stm32f4xx_usart.o(.text)
    USART_ClockInit                          0x08031753   Thumb Code    32  stm32f4xx_usart.o(.text)
    USART_ClockStructInit                    0x08031773   Thumb Code    12  stm32f4xx_usart.o(.text)
    USART_Cmd                                0x0803177f   Thumb Code    24  stm32f4xx_usart.o(.text)
    USART_SetPrescaler                       0x08031797   Thumb Code    16  stm32f4xx_usart.o(.text)
    USART_OverSampling8Cmd                   0x080317a7   Thumb Code    22  stm32f4xx_usart.o(.text)
    USART_OneBitMethodCmd                    0x080317bd   Thumb Code    24  stm32f4xx_usart.o(.text)
    USART_SendData                           0x080317d5   Thumb Code     8  stm32f4xx_usart.o(.text)
    USART_ReceiveData                        0x080317dd   Thumb Code    10  stm32f4xx_usart.o(.text)
    USART_SetAddress                         0x080317e7   Thumb Code    18  stm32f4xx_usart.o(.text)
    USART_ReceiverWakeUpCmd                  0x080317f9   Thumb Code    24  stm32f4xx_usart.o(.text)
    USART_WakeUpConfig                       0x08031811   Thumb Code    18  stm32f4xx_usart.o(.text)
    USART_LINBreakDetectLengthConfig         0x08031823   Thumb Code    18  stm32f4xx_usart.o(.text)
    USART_LINCmd                             0x08031835   Thumb Code    24  stm32f4xx_usart.o(.text)
    USART_SendBreak                          0x0803184d   Thumb Code    10  stm32f4xx_usart.o(.text)
    USART_HalfDuplexCmd                      0x08031857   Thumb Code    24  stm32f4xx_usart.o(.text)
    USART_SetGuardTime                       0x0803186f   Thumb Code    16  stm32f4xx_usart.o(.text)
    USART_SmartCardCmd                       0x0803187f   Thumb Code    24  stm32f4xx_usart.o(.text)
    USART_SmartCardNACKCmd                   0x08031897   Thumb Code    24  stm32f4xx_usart.o(.text)
    USART_IrDAConfig                         0x080318af   Thumb Code    18  stm32f4xx_usart.o(.text)
    USART_IrDACmd                            0x080318c1   Thumb Code    24  stm32f4xx_usart.o(.text)
    USART_DMACmd                             0x080318d9   Thumb Code    18  stm32f4xx_usart.o(.text)
    USART_ITConfig                           0x080318eb   Thumb Code    74  stm32f4xx_usart.o(.text)
    USART_GetFlagStatus                      0x08031935   Thumb Code    26  stm32f4xx_usart.o(.text)
    USART_ClearFlag                          0x0803194f   Thumb Code    18  stm32f4xx_usart.o(.text)
    USART_GetITStatus                        0x08031961   Thumb Code   118  stm32f4xx_usart.o(.text)
    USART_ClearITPendingBit                  0x080319d7   Thumb Code    30  stm32f4xx_usart.o(.text)
    __aeabi_ldivmod                          0x080319f5   Thumb Code    90  ldiv.o(.text)
    rand                                     0x08031a51   Thumb Code    20  rand.o(.text)
    srand                                    0x08031a65   Thumb Code     6  rand.o(.text)
    __aeabi_memcpy                           0x08031a75   Thumb Code    36  memcpya.o(.text)
    __aeabi_memcpy4                          0x08031a75   Thumb Code     0  memcpya.o(.text)
    __aeabi_memcpy8                          0x08031a75   Thumb Code     0  memcpya.o(.text)
    __aeabi_memset                           0x08031a99   Thumb Code    14  memseta.o(.text)
    __aeabi_memset4                          0x08031a99   Thumb Code     0  memseta.o(.text)
    __aeabi_memset8                          0x08031a99   Thumb Code     0  memseta.o(.text)
    __aeabi_memclr                           0x08031aa7   Thumb Code     4  memseta.o(.text)
    __aeabi_memclr4                          0x08031aa7   Thumb Code     0  memseta.o(.text)
    __aeabi_memclr8                          0x08031aa7   Thumb Code     0  memseta.o(.text)
    _memset$wrapper                          0x08031aab   Thumb Code    18  memseta.o(.text)
    __aeabi_dadd                             0x08031abd   Thumb Code   322  dadd.o(.text)
    __aeabi_dsub                             0x08031bff   Thumb Code     6  dadd.o(.text)
    __aeabi_drsub                            0x08031c05   Thumb Code     6  dadd.o(.text)
    __aeabi_dmul                             0x08031c0b   Thumb Code   228  dmul.o(.text)
    __aeabi_ddiv                             0x08031cef   Thumb Code   222  ddiv.o(.text)
    __aeabi_ui2d                             0x08031dcd   Thumb Code    26  dfltui.o(.text)
    __aeabi_d2uiz                            0x08031de7   Thumb Code    50  dfixui.o(.text)
    __aeabi_f2d                              0x08031e19   Thumb Code    38  f2d.o(.text)
    __aeabi_cdrcmple                         0x08031e41   Thumb Code    38  cdrcmple.o(.text)
    __aeabi_d2f                              0x08031e69   Thumb Code    56  d2f.o(.text)
    __aeabi_uldivmod                         0x08031ea1   Thumb Code    98  uldiv.o(.text)
    __aeabi_llsl                             0x08031f03   Thumb Code    30  llshl.o(.text)
    _ll_shift_l                              0x08031f03   Thumb Code     0  llshl.o(.text)
    __aeabi_llsr                             0x08031f21   Thumb Code    32  llushr.o(.text)
    _ll_ushift_r                             0x08031f21   Thumb Code     0  llushr.o(.text)
    __aeabi_lasr                             0x08031f41   Thumb Code    36  llsshr.o(.text)
    _ll_sshift_r                             0x08031f41   Thumb Code     0  llsshr.o(.text)
    __I$use$fp                               0x08031f65   Thumb Code     0  iusefp.o(.text)
    _float_round                             0x08031f65   Thumb Code    18  fepilogue.o(.text)
    _float_epilogue                          0x08031f77   Thumb Code    92  fepilogue.o(.text)
    _double_round                            0x08031fd3   Thumb Code    26  depilogue.o(.text)
    _double_epilogue                         0x08031fed   Thumb Code   156  depilogue.o(.text)
    __scatterload                            0x08032089   Thumb Code    28  init.o(.text)
    __scatterload_rt2                        0x08032089   Thumb Code     0  init.o(.text)
    __decompress                             0x080320ad   Thumb Code     0  __dczerorl2.o(.text)
    __decompress1                            0x080320ad   Thumb Code    86  __dczerorl2.o(.text)
    AES128_decrypt                           0x08032105   Thumb Code   758  crypto.o(i.AES128_decrypt)
    AES128_encrypt                           0x08032409   Thumb Code   776  crypto.o(i.AES128_encrypt)
    AES128_keyschedule_dec                   0x0803271d   Thumb Code   302  crypto.o(i.AES128_keyschedule_dec)
    AES128_keyschedule_enc                   0x08032851   Thumb Code   112  crypto.o(i.AES128_keyschedule_enc)
    AES192_decrypt                           0x080328c5   Thumb Code   754  crypto.o(i.AES192_decrypt)
    AES192_encrypt                           0x08032bc5   Thumb Code   776  crypto.o(i.AES192_encrypt)
    AES192_keyschedule_dec                   0x08032ed9   Thumb Code   284  crypto.o(i.AES192_keyschedule_dec)
    AES192_keyschedule_enc                   0x08032ff9   Thumb Code   148  crypto.o(i.AES192_keyschedule_enc)
    AES256_decrypt                           0x08033091   Thumb Code   758  crypto.o(i.AES256_decrypt)
    AES256_encrypt                           0x08033395   Thumb Code   778  crypto.o(i.AES256_encrypt)
    AES256_keyschedule_dec                   0x080336ad   Thumb Code   284  crypto.o(i.AES256_keyschedule_dec)
    AES256_keyschedule_enc                   0x080337cd   Thumb Code   210  crypto.o(i.AES256_keyschedule_enc)
    AES_ECB_Decrypt_Append                   0x080338a9   Thumb Code   196  crypto.o(i.AES_ECB_Decrypt_Append)
    AES_ECB_Decrypt_Finish                   0x0803396d   Thumb Code    26  crypto.o(i.AES_ECB_Decrypt_Finish)
    AES_ECB_Decrypt_Init                     0x08033987   Thumb Code     6  crypto.o(i.AES_ECB_Decrypt_Init)
    AES_ECB_Encrypt_Append                   0x0803398d   Thumb Code   196  crypto.o(i.AES_ECB_Encrypt_Append)
    AES_ECB_Encrypt_Finish                   0x08033a51   Thumb Code    26  crypto.o(i.AES_ECB_Encrypt_Finish)
    AES_ECB_Encrypt_Init                     0x08033a6b   Thumb Code     6  crypto.o(i.AES_ECB_Encrypt_Init)
    Crypto_DeInit                            0x08033c15   Thumb Code     8  crypto.o(i.Crypto_DeInit)
    MD5_Append                               0x08033c1d   Thumb Code    42  crypto.o(i.MD5_Append)
    MD5_Finish                               0x08033c47   Thumb Code   144  crypto.o(i.MD5_Finish)
    MD5_Init                                 0x08033cd9   Thumb Code    44  crypto.o(i.MD5_Init)
    __0printf$2                              0x08033d15   Thumb Code    22  printf2.o(i.__0printf$2)
    __1printf$2                              0x08033d15   Thumb Code     0  printf2.o(i.__0printf$2)
    __2printf                                0x08033d15   Thumb Code     0  printf2.o(i.__0printf$2)
    __scatterload_copy                       0x08033d35   Thumb Code    14  handlers.o(i.__scatterload_copy)
    __scatterload_null                       0x08033d43   Thumb Code     2  handlers.o(i.__scatterload_null)
    __scatterload_zeroinit                   0x08033d45   Thumb Code    14  handlers.o(i.__scatterload_zeroinit)
    crl_u_MD5_Finish                         0x08033e29   Thumb Code   210  crypto.o(i.crl_u_MD5_Finish)
    crl_u_MD5_Update                         0x08033f01   Thumb Code   150  crypto.o(i.crl_u_MD5_Update)
    chCRCHTable                              0x080347a8   Data         256  task_communicate_protocol.o(.constdata)
    chCRCLTable                              0x080348a8   Data         256  task_communicate_protocol.o(.constdata)
    InputMessage                             0x080349a8   Data           8  bsp_md5.o(.constdata)
    Expected_OutputMessage                   0x080349b0   Data          16  bsp_md5.o(.constdata)
    MSC_Page00_Inquiry_Data                  0x080349c0   Data           7  usbd_msc_data.o(.constdata)
    MSC_Mode_Sense6_data                     0x080349c7   Data           8  usbd_msc_data.o(.constdata)
    MSC_Mode_Sense10_data                    0x080349cf   Data           8  usbd_msc_data.o(.constdata)
    Sbox                                     0x08034f54   Data         256  crypto.o(.constdata)
    InvSbox                                  0x08035054   Data         256  crypto.o(.constdata)
    rcon                                     0x08035154   Data          40  crypto.o(.constdata)
    enc_table                                0x0803517c   Data        1024  crypto.o(.constdata)
    dec_table                                0x0803557c   Data        1024  crypto.o(.constdata)
    SP1                                      0x08035b9c   Data         256  crypto.o(.constdata)
    SP2                                      0x08035c9c   Data         256  crypto.o(.constdata)
    SP3                                      0x08035d9c   Data         256  crypto.o(.constdata)
    SP4                                      0x08035e9c   Data         256  crypto.o(.constdata)
    SP5                                      0x08035f9c   Data         256  crypto.o(.constdata)
    SP6                                      0x0803609c   Data         256  crypto.o(.constdata)
    SP7                                      0x0803619c   Data         256  crypto.o(.constdata)
    SP8                                      0x0803629c   Data         256  crypto.o(.constdata)
    K256                                     0x0803639c   Data         256  crypto.o(.constdata)
    Region$$Table$$Base                      0x080366ec   Number         0  anon$$obj.o(Region$$Table)
    Region$$Table$$Limit                     0x0803670c   Number         0  anon$$obj.o(Region$$Table)
    BSP_Task_Handle                          0x20000000   Data           4  main.o(.data)
    USART_Task_Handle                        0x20000004   Data           4  main.o(.data)
    USB_Task_Handle                          0x20000008   Data           4  main.o(.data)
    USART_L0_RXTask_Handle                   0x2000000c   Data           4  main.o(.data)
    USART_L0_TXTask_Handle                   0x20000010   Data           4  main.o(.data)
    USART_L1_RXTask_Handle                   0x20000014   Data           4  main.o(.data)
    USART_L1_TXTask_Handle                   0x20000018   Data           4  main.o(.data)
    L0_RxQue                                 0x2000001c   Data           4  main.o(.data)
    L0_TxQue                                 0x20000020   Data           4  main.o(.data)
    L1_TxQue                                 0x20000024   Data           4  main.o(.data)
    usart1_TxQue                             0x20000028   Data           4  main.o(.data)
    res                                      0x2000002c   Data           1  main.o(.data)
    i                                        0x20000030   Data           4  main.o(.data)
    L1_TxBuffer                              0x20000034   Data        2100  task_communicate_protocol.o(.data)
    L2_TxBuffer                              0x20000868   Data           4  task_communicate_protocol.o(.data)
    L2_RxBuffer                              0x2000086c   Data           4  task_communicate_protocol.o(.data)
    L2_TxKeyBuffer                           0x20000870   Data           4  task_communicate_protocol.o(.data)
    SD_IN                                    0x20000874   Data           1  task_communicate_protocol.o(.data)
    L1_ACK_Buffer                            0x20000875   Data          20  task_communicate_protocol.o(.data)
    L1_RcvSta                                0x20000889   Data           1  task_communicate_protocol.o(.data)
    L1_TxSta                                 0x2000088a   Data           1  task_communicate_protocol.o(.data)
    L1_RxHeader                              0x2000088c   Data           8  task_communicate_protocol.o(.data)
    L1_TxHeader                              0x20000894   Data           8  task_communicate_protocol.o(.data)
    L2_RxHeader                              0x2000089c   Data           6  task_communicate_protocol.o(.data)
    L2_TxHeader                              0x200008a2   Data           6  task_communicate_protocol.o(.data)
    ACCESS_STATUS                            0x200008a8   Data           1  task_communicate_protocol.o(.data)
    L1_Resend_Times                          0x200008a9   Data           1  task_communicate_protocol.o(.data)
    L1_Tx_Sempaphore                         0x200008aa   Data           1  task_communicate_protocol.o(.data)
    L2_TxKeys_Number                         0x200008ab   Data           1  task_communicate_protocol.o(.data)
    Crp_Sta                                  0x200008ac   Data           4  task_communicate_protocol.o(.data)
    Crp_Length                               0x200008b0   Data           4  task_communicate_protocol.o(.data)
    RNG_Number                               0x200008b4   Data           4  task_communicate_protocol.o(.data)
    KN_Rcv                                   0x200008b8   Data           4  task_communicate_protocol.o(.data)
    Tx_SequenceID                            0x200008bc   Data           2  task_communicate_protocol.o(.data)
    Delay_20Bytes                            0x200008be   Data           1  task_communicate_protocol.o(.data)
    WAKEUPSEMA_RCV                           0x200008bf   Data           1  task_communicate_protocol.o(.data)
    WAKEUPSEMA_SEND                          0x200008c0   Data           1  task_communicate_protocol.o(.data)
    Battery_Test                             0x200008c1   Data           2  task_communicate_protocol.o(.data)
    MCU_ReadLength                           0x200008c4   Data           2  task_communicate_protocol.o(.data)
    controlkey                               0x200008c8   Data           4  task_communicate_protocol.o(.data)
    controlkeyindex                          0x200008cc   Data           1  task_communicate_protocol.o(.data)
    image_length_expected                    0x200008d0   Data           4  task_communicate_protocol.o(.data)
    Firmware_Write_Len                       0x200008d4   Data           4  task_communicate_protocol.o(.data)
    Firmware_Writed_Len                      0x200008d8   Data           4  task_communicate_protocol.o(.data)
    Firmware_Write_Ptr                       0x200008dc   Data           4  task_communicate_protocol.o(.data)
    MD5_status                               0x200008e0   Data           4  task_communicate_protocol.o(.data)
    MD5_Calculated_Length                    0x200008e4   Data           4  task_communicate_protocol.o(.data)
    SystemCoreClock                          0x200008f0   Data           4  system_stm32f4xx.o(.data)
    AHBPrescTable                            0x200008f4   Data          16  system_stm32f4xx.o(.data)
    LEDRed                                   0x20000904   Data          16  task_hardwarecontrol.o(.data)
    LEDGreen                                 0x20000914   Data          16  task_hardwarecontrol.o(.data)
    LEDBlue                                  0x20000924   Data          16  task_hardwarecontrol.o(.data)
    LEDRed_APPCon                            0x20000934   Data          16  task_hardwarecontrol.o(.data)
    LEDGreen_APPCon                          0x20000944   Data          16  task_hardwarecontrol.o(.data)
    LEDBlue_APPCon                           0x20000954   Data          16  task_hardwarecontrol.o(.data)
    LEDRed_Act                               0x20000964   Data           4  task_hardwarecontrol.o(.data)
    LEDGreen_Act                             0x20000968   Data           4  task_hardwarecontrol.o(.data)
    LEDBlue_Act                              0x2000096c   Data           4  task_hardwarecontrol.o(.data)
    BUZZ                                     0x20000970   Data          16  task_hardwarecontrol.o(.data)
    BUZZ_APPCon                              0x20000980   Data          16  task_hardwarecontrol.o(.data)
    BUZZ_Act                                 0x20000990   Data           4  task_hardwarecontrol.o(.data)
    MCU_JUSTEXITStop_Flag                    0x20000994   Data           1  task_hardwarecontrol.o(.data)
    BlinkStepR                               0x20000995   Data           1  task_hardwarecontrol.o(.data)
    BlinkStepG                               0x20000996   Data           1  task_hardwarecontrol.o(.data)
    BlinkStepB                               0x20000997   Data           1  task_hardwarecontrol.o(.data)
    BeepStep                                 0x20000998   Data           1  task_hardwarecontrol.o(.data)
    BT_NameFlag                              0x20000999   Data           1  task_hardwarecontrol.o(.data)
    BT_Machine                               0x2000099a   Data           1  task_hardwarecontrol.o(.data)
    ledrticks                                0x2000099c   Data           2  task_hardwarecontrol.o(.data)
    beepticks                                0x2000099e   Data           2  task_hardwarecontrol.o(.data)
    ledgticks                                0x200009a0   Data           2  task_hardwarecontrol.o(.data)
    ledbticks                                0x200009a2   Data           2  task_hardwarecontrol.o(.data)
    batteryticks                             0x200009a4   Data           2  task_hardwarecontrol.o(.data)
    buttonticks                              0x200009a6   Data           2  task_hardwarecontrol.o(.data)
    onoffticks                               0x200009a8   Data           2  task_hardwarecontrol.o(.data)
    rcvticks                                 0x200009aa   Data           2  task_hardwarecontrol.o(.data)
    BTticks                                  0x200009ac   Data           2  task_hardwarecontrol.o(.data)
    accesstick                               0x200009ae   Data           2  task_hardwarecontrol.o(.data)
    BT_ADV_Time                              0x200009b0   Data           2  task_hardwarecontrol.o(.data)
    ExitClear_Time                           0x200009b2   Data           2  task_hardwarecontrol.o(.data)
    SleepTime                                0x200009b4   Data           2  task_hardwarecontrol.o(.data)
    timesbeeped                              0x200009b6   Data           1  task_hardwarecontrol.o(.data)
    timesledrblinked                         0x200009b7   Data           1  task_hardwarecontrol.o(.data)
    timesledgblinked                         0x200009b8   Data           1  task_hardwarecontrol.o(.data)
    timesledbblinked                         0x200009b9   Data           1  task_hardwarecontrol.o(.data)
    BT_Timeout                               0x200009ba   Data           2  task_hardwarecontrol.o(.data)
    Battery_Alarmed                          0x200009bc   Data           1  task_hardwarecontrol.o(.data)
    ButtonControl                            0x200009bd   Data           1  task_hardwarecontrol.o(.data)
    LEDRControl                              0x200009be   Data           1  task_hardwarecontrol.o(.data)
    ButtonFirstRelease                       0x200009bf   Data           1  task_hardwarecontrol.o(.data)
    MCU_STOP_Flag                            0x200009c0   Data           1  task_hardwarecontrol.o(.data)
    ControlNeedStop                          0x200009c1   Data           1  task_hardwarecontrol.o(.data)
    BTtimes                                  0x200009c2   Data           2  task_hardwarecontrol.o(.data)
    USB_INIT_FINISHED                        0x200009c4   Data           1  task_hardwarecontrol.o(.data)
    blue_bw                                  0x200009c8   Data           4  task_hardwarecontrol.o(.data)
    blue_res                                 0x200009cc   Data           1  task_hardwarecontrol.o(.data)
    BT_State_ascii                           0x200009cd   Data           1  task_hardwarecontrol.o(.data)
    BT_Initialed                             0x200009ce   Data           1  task_hardwarecontrol.o(.data)
    VoltagetoCapacity                        0x200009d0   Data         724  bsp_adc.o(.data)
    Battery_Level                            0x20000ca4   Data           1  bsp_adc.o(.data)
    Battery_Voltage                          0x20000ca8   Data           8  bsp_adc.o(.data)
    FilteredADC                              0x20000cb0   Data           2  bsp_adc.o(.data)
    Battery_Voltage_Test                     0x20000cb2   Data           2  bsp_adc.o(.data)
    VotperCount                              0x20000cb4   Data           4  bsp_adc.o(.data)
    Key                                      0x20000cb8   Data          32  bsp_aesecb256.o(.data)
    bw                                       0x20000cd8   Data           4  bsp_filesystem.o(.data)
    br                                       0x20000cdc   Data           4  bsp_filesystem.o(.data)
    char_ManuName                            0x20000ce0   Data           5  bsp_filesystem.o(.data)
    char_ModelNum                            0x20000ce5   Data           6  bsp_filesystem.o(.data)
    char_SN                                  0x20000ceb   Data          13  bsp_filesystem.o(.data)
    char_HardRev                             0x20000cf8   Data           6  bsp_filesystem.o(.data)
    char_FirmRev                             0x20000cfe   Data           6  bsp_filesystem.o(.data)
    char_SoftRev                             0x20000d04   Data           6  bsp_filesystem.o(.data)
    char_SysID                               0x20000d0a   Data           6  bsp_filesystem.o(.data)
    MCU_WriteStatus                          0x20000d10   Data           1  bsp_filesystem.o(.data)
    MCU_ReadStatus                           0x20000d11   Data           1  bsp_filesystem.o(.data)
    char_SysID_Length                        0x20000d12   Data           1  bsp_filesystem.o(.data)
    Key_Sound                                0x20000d13   Data           1  bsp_filesystem.o(.data)
    Battery_Threshold                        0x20000d14   Data           1  bsp_filesystem.o(.data)
    SDTEST_WriteBuffer                       0x20000d15   Data         512  bsp_filesystem.o(.data)
    SDTEST_ReadBuffer                        0x20000f15   Data         512  bsp_filesystem.o(.data)
    Sysinfo                                  0x20001118   Data          32  bsp_filesystem.o(.data)
    TransferError                            0x20001142   Data           1  bsp_sdio.o(.data)
    TransferEnd                              0x20001143   Data           1  bsp_sdio.o(.data)
    tempbuff                                 0x20001144   Data           4  bsp_sdio.o(.data)
    BT_CMDBufferIndex                        0x20001148   Data           1  bsp_usart.o(.data)
    DTS                                      0x20001149   Data           1  bsp_usart.o(.data)
    L0_RxCount                               0x2000114a   Data           1  bsp_usart.o(.data)
    L0_TxCount                               0x2000114b   Data           1  bsp_usart.o(.data)
    BT_IsReady                               0x2000114c   Data           1  bsp_usart.o(.data)
    BT_State                                 0x2000114d   Data           1  bsp_usart.o(.data)
    BT_State_old                             0x2000114e   Data           1  bsp_usart.o(.data)
    BT_CMDBuffer_Index                       0x2000114f   Data           1  bsp_usart.o(.data)
    BTCMD_State                              0x20001150   Data           1  bsp_usart.o(.data)
    BT_Respond                               0x20001151   Data           1  bsp_usart.o(.data)
    STX_Received                             0x20001152   Data           1  bsp_usart.o(.data)
    Version_Received                         0x20001153   Data           1  bsp_usart.o(.data)
    BT_INIT_FINISHED                         0x20001154   Data           1  bsp_usart.o(.data)
    BT_SLDN_FINISHED                         0x20001155   Data           1  bsp_usart.o(.data)
    BT_RST_FINISHED                          0x20001156   Data           1  bsp_usart.o(.data)
    BT_ADV_FINISHED                          0x20001157   Data           1  bsp_usart.o(.data)
    BT_STATE_FINISHED                        0x20001158   Data           1  bsp_usart.o(.data)
    BT_ADDRESS_FINISHED                      0x20001159   Data           1  bsp_usart.o(.data)
    APPTest_Buffer                           0x2000115a   Data        2097  bsp_usart.o(.data)
    __stdout                                 0x2000198c   Data           4  bsp_usart.o(.data)
    PowerOn_Released                         0x20001990   Data           1  bsp_gpio.o(.data)
    EXIT_FromRTC                             0x20001991   Data           1  bsp_rtc.o(.data)
    InputLength                              0x20001994   Data           4  bsp_md5.o(.data)
    MessageDigestLength                      0x20001998   Data           4  bsp_md5.o(.data)
    pxCurrentTCB                             0x200019b8   Data           4  tasks.o(.data)
    USB_MS                                   0x200019f0   Data           3  usb_bsp.o(.data)
    SET_TEST_MODE                            0x200019f4   Data           4  usbd_core.o(.data)
    USBD_DCD_INT_cb                          0x200019f8   Data          44  usbd_core.o(.data)
    USBD_DCD_INT_fops                        0x20001a24   Data           4  usbd_core.o(.data)
    USR_desc                                 0x20001a28   Data          28  usbd_desc.o(.data)
    USBD_DeviceDesc                          0x20001a44   Data          18  usbd_desc.o(.data)
    USBD_DeviceQualifierDesc                 0x20001a56   Data          10  usbd_desc.o(.data)
    USBD_LangIDDesc                          0x20001a60   Data           4  usbd_desc.o(.data)
    MSC_BOT_DataLen                          0x20001a64   Data           2  usbd_msc_bot.o(.data)
    MSC_BOT_State                            0x20001a66   Data           1  usbd_msc_bot.o(.data)
    MSC_BOT_Status                           0x20001a67   Data           1  usbd_msc_bot.o(.data)
    USBD_MSC_cb                              0x20001a68   Data          44  usbd_msc_core.o(.data)
    USBD_MSC_CfgDesc                         0x20001a94   Data          32  usbd_msc_core.o(.data)
    SCSI_Sense_Head                          0x20001ab8   Data           1  usbd_msc_scsi.o(.data)
    SCSI_Sense_Tail                          0x20001ab9   Data           1  usbd_msc_scsi.o(.data)
    SCSI_blk_size                            0x20001abc   Data           4  usbd_msc_scsi.o(.data)
    SCSI_blk_nbr                             0x20001ac0   Data           4  usbd_msc_scsi.o(.data)
    SCSI_blk_addr                            0x20001ac4   Data           4  usbd_msc_scsi.o(.data)
    SCSI_blk_len                             0x20001ac8   Data           4  usbd_msc_scsi.o(.data)
    cdev                                     0x20001acc   Data           4  usbd_msc_scsi.o(.data)
    USBD_ep_status                           0x20001ad0   Data           4  usbd_req.o(.data)
    USBD_default_cfg                         0x20001ad4   Data           4  usbd_req.o(.data)
    USBD_cfg_status                          0x20001ad8   Data           4  usbd_req.o(.data)
    USB_STATUS_REG                           0x20001ae0   Data           1  usbd_storage.o(.data)
    STORAGE_Inquirydata                      0x20001ae1   Data          72  usbd_storage.o(.data)
    USBD_MICRO_SDIO_fops                     0x20001b2c   Data          32  usbd_storage.o(.data)
    USBD_STORAGE_fops                        0x20001b4c   Data           4  usbd_storage.o(.data)
    UDISK_CONNECTED                          0x20001b50   Data           1  usbd_usr.o(.data)
    UDISK_SUSPENDED                          0x20001b51   Data           1  usbd_usr.o(.data)
    USRD_cb                                  0x20001b54   Data          28  usbd_usr.o(.data)
    L0_RxBuffer                              0x20001b90   Data          20  task_communicate_protocol.o(.bss)
    L0_RxBuffer_Temp                         0x20001ba4   Data          20  task_communicate_protocol.o(.bss)
    L0_TxBuffer                              0x20001bb8   Data          20  task_communicate_protocol.o(.bss)
    L0_TxBuffer_Temp                         0x20001bcc   Data          20  task_communicate_protocol.o(.bss)
    L1_RxBuffer                              0x20001be0   Data        2100  task_communicate_protocol.o(.bss)
    L2_RxKeys                                0x20002414   Data          80  task_communicate_protocol.o(.bss)
    L2_TxKeys                                0x20002464   Data          80  task_communicate_protocol.o(.bss)
    Decrp_Buffer                             0x200024b4   Data          32  task_communicate_protocol.o(.bss)
    Encrp_Buffer                             0x200024d4   Data          32  task_communicate_protocol.o(.bss)
    image_MD5_expected                       0x200024f4   Data          16  task_communicate_protocol.o(.bss)
    image_MD5_Calculated                     0x20002504   Data          16  task_communicate_protocol.o(.bss)
    Blank_Buffer                             0x20002514   Data          11  task_hardwarecontrol.o(.bss)
    BT_ADDRESS                               0x2000251f   Data          12  task_hardwarecontrol.o(.bss)
    file_blue                                0x2000252c   Data         552  task_hardwarecontrol.o(.bss)
    fatfs_SDCARD                             0x20002754   Data         560  bsp_filesystem.o(.bss)
    fatfs_USBDISK                            0x20002984   Data         560  bsp_filesystem.o(.bss)
    file_sdif                                0x20002bb4   Data         552  bsp_filesystem.o(.bss)
    file_read                                0x20002ddc   Data         552  bsp_filesystem.o(.bss)
    file_write                               0x20003004   Data         552  bsp_filesystem.o(.bss)
    file_info                                0x2000322c   Data         552  bsp_filesystem.o(.bss)
    file_test                                0x20003454   Data         552  bsp_filesystem.o(.bss)
    SDIF_Read                                0x2000367c   Data        2049  bsp_filesystem.o(.bss)
    MCU_ROM_Read                             0x20003e7d   Data         513  bsp_filesystem.o(.bss)
    MCU_ROM_Write                            0x2000407e   Data        1040  bsp_filesystem.o(.bss)
    SDTEST_BlankBuffer                       0x2000448e   Data         512  bsp_filesystem.o(.bss)
    SDIO_InitStructure                       0x20004690   Data          24  bsp_sdio.o(.bss)
    SDIO_CmdInitStructure                    0x200046a8   Data          20  bsp_sdio.o(.bss)
    SDIO_DataInitStructure                   0x200046bc   Data          24  bsp_sdio.o(.bss)
    SDCardInfo                               0x200046f8   Data          88  bsp_sdio.o(.bss)
    SDIO_DATA_BUFFER                         0x20004750   Data         512  bsp_sdio.o(.bss)
    BT_CMDBufferRx                           0x20004950   Data          40  bsp_usart.o(.bss)
    Button                                   0x20004978   Data          12  bsp_gpio.o(.bss)
    MessageDigest                            0x20004984   Data          16  bsp_md5.o(.bss)
    xQueueRegistry                           0x20014994   Data          64  queue.o(.bss)
    USB_OTG_Core                             0x20014b64   Data        2704  usb_bsp.o(.bss)
    MSC_BOT_Data                             0x200155f4   Data        4096  usbd_msc_bot.o(.bss)
    MSC_BOT_cbw                              0x200165f4   Data          32  usbd_msc_bot.o(.bss)
    MSC_BOT_csw                              0x20016614   Data          16  usbd_msc_bot.o(.bss)
    SCSI_Sense                               0x20016624   Data          32  usbd_msc_scsi.o(.bss)
    USBD_StrDesc                             0x20016644   Data          64  usbd_req.o(.bss)
    __initial_sp                             0x20016a88   Data           0  startup_stm32f411xe.o(STACK)



==============================================================================

Memory Map of the image

  Image Entry point : 0x08020199

  Load Region LR_IROM1 (Base: 0x08020000, Size: 0x0001829c, Max: 0x00020000, ABSOLUTE, COMPRESSED[0x00016bf4])

    Execution Region ER_IROM1 (Base: 0x08020000, Size: 0x0001670c, Max: 0x00020000, ABSOLUTE)

    Base Addr    Size         Type   Attr      Idx    E Section Name        Object

    0x08020000   0x00000198   Data   RO          660    RESET               startup_stm32f411xe.o
    0x08020198   0x00000000   Code   RO         2103  * .ARM.Collect$$$$00000000  mc_w.l(entry.o)
    0x08020198   0x00000004   Code   RO         2394    .ARM.Collect$$$$00000001  mc_w.l(entry2.o)
    0x0802019c   0x00000004   Code   RO         2397    .ARM.Collect$$$$00000004  mc_w.l(entry5.o)
    0x080201a0   0x00000000   Code   RO         2399    .ARM.Collect$$$$00000008  mc_w.l(entry7b.o)
    0x080201a0   0x00000000   Code   RO         2401    .ARM.Collect$$$$0000000A  mc_w.l(entry8b.o)
    0x080201a0   0x00000008   Code   RO         2402    .ARM.Collect$$$$0000000B  mc_w.l(entry9a.o)
    0x080201a8   0x00000000   Code   RO         2404    .ARM.Collect$$$$0000000D  mc_w.l(entry10a.o)
    0x080201a8   0x00000000   Code   RO         2406    .ARM.Collect$$$$0000000F  mc_w.l(entry11a.o)
    0x080201a8   0x00000004   Code   RO         2395    .ARM.Collect$$$$00002712  mc_w.l(entry2.o)
    0x080201ac   0x000000c6   Code   RO          779    .emb_text           port.o
    0x08020272   0x00000002   PAD
    0x08020274   0x00000194   Code   RO            3    .text               main.o
    0x08020408   0x00000024   Code   RO          327    .text               stm32f4xx_it.o
    0x0802042c   0x000016c8   Code   RO          364    .text               task_communicate_protocol.o
    0x08021af4   0x000001f4   Code   RO          402    .text               system_stm32f4xx.o
    0x08021ce8   0x00001300   Code   RO          428    .text               task_hardwarecontrol.o
    0x08022fe8   0x000003d8   Code   RO          460    .text               bsp_adc.o
    0x080233c0   0x000000ec   Code   RO          486    .text               bsp_aesecb256.o
    0x080234ac   0x0000004a   Code   RO          515    .text               bsp_delay.o
    0x080234f6   0x00000002   PAD
    0x080234f8   0x00000438   Code   RO          538    .text               bsp_filesystem.o
    0x08023930   0x00001d8c   Code   RO          570    .text               bsp_sdio.o
    0x080256bc   0x00000528   Code   RO          597    .text               bsp_usart.o
    0x08025be4   0x00000440   Code   RO          632    .text               bsp_gpio.o
    0x08026024   0x00000024   Code   RO          661    .text               startup_stm32f411xe.o
    0x08026048   0x000000f8   Code   RO          667    .text               bsp_rtc.o
    0x08026140   0x000000a4   Code   RO          695    .text               bsp_md5.o
    0x080261e4   0x00000124   Code   RO          718    .text               heap_2.o
    0x08026308   0x00000094   Code   RO          767    .text               list.o
    0x0802639c   0x000000fc   Code   RO          780    .text               port.o
    0x08026498   0x000005b0   Code   RO          803    .text               queue.o
    0x08026a48   0x00000ba8   Code   RO          824    .text               tasks.o
    0x080275f0   0x000000d8   Code   RO          848    .text               usb_bsp.o
    0x080276c8   0x00001786   Code   RO          880    .text               usb_core.o
    0x08028e4e   0x0000037e   Code   RO          900    .text               usb_dcd.o
    0x080291cc   0x00000770   Code   RO          920    .text               usb_dcd_int.o
    0x0802993c   0x000002f8   Code   RO          940    .text               usbd_core.o
    0x08029c34   0x0000013c   Code   RO          969    .text               usbd_desc.o
    0x08029d70   0x000000f4   Code   RO          996    .text               usbd_ioreq.o
    0x08029e64   0x00000294   Code   RO         1016    .text               usbd_msc_bot.o
    0x0802a0f8   0x000001a4   Code   RO         1052    .text               usbd_msc_core.o
    0x0802a29c   0x00000750   Code   RO         1102    .text               usbd_msc_scsi.o
    0x0802a9ec   0x000006c0   Code   RO         1134    .text               usbd_req.o
    0x0802b0ac   0x00000100   Code   RO         1163    .text               usbd_storage.o
    0x0802b1ac   0x00000054   Code   RO         1193    .text               usbd_usr.o
    0x0802b200   0x00000130   Code   RO         1221    .text               diskio.o
    0x0802b330   0x00002aa6   Code   RO         1249    .text               ff.o
    0x0802ddd6   0x00000002   PAD
    0x0802ddd8   0x00000080   Code   RO         1279    .text               unicode.o
    0x0802de58   0x000000e0   Code   RO         1298    .text               misc.o
    0x0802df38   0x00000464   Code   RO         1318    .text               stm32f4xx_adc.o
    0x0802e39c   0x000003a8   Code   RO         1358    .text               stm32f4xx_dma.o
    0x0802e744   0x00000110   Code   RO         1378    .text               stm32f4xx_exti.o
    0x0802e854   0x00000694   Code   RO         1398    .text               stm32f4xx_flash.o
    0x0802eee8   0x00000294   Code   RO         1418    .text               stm32f4xx_gpio.o
    0x0802f17c   0x00000040   Code   RO         1461    .text               stm32f4xx_iwdg.o
    0x0802f1bc   0x0000016c   Code   RO         1481    .text               stm32f4xx_pwr.o
    0x0802f328   0x000005fc   Code   RO         1501    .text               stm32f4xx_rcc.o
    0x0802f924   0x00000d68   Code   RO         1543    .text               stm32f4xx_rtc.o
    0x0803068c   0x000001dc   Code   RO         1563    .text               stm32f4xx_sdio.o
    0x08030868   0x00000094   Code   RO         1606    .text               stm32f4xx_syscfg.o
    0x080308fc   0x00000ca2   Code   RO         1626    .text               stm32f4xx_tim.o
    0x0803159e   0x00000002   PAD
    0x080315a0   0x00000454   Code   RO         1646    .text               stm32f4xx_usart.o
    0x080319f4   0x0000005a   Code   RO         2106    .text               mc_w.l(ldiv.o)
    0x08031a4e   0x00000002   PAD
    0x08031a50   0x00000024   Code   RO         2108    .text               mc_w.l(rand.o)
    0x08031a74   0x00000024   Code   RO         2111    .text               mc_w.l(memcpya.o)
    0x08031a98   0x00000024   Code   RO         2113    .text               mc_w.l(memseta.o)
    0x08031abc   0x0000014e   Code   RO         2378    .text               mf_w.l(dadd.o)
    0x08031c0a   0x000000e4   Code   RO         2380    .text               mf_w.l(dmul.o)
    0x08031cee   0x000000de   Code   RO         2382    .text               mf_w.l(ddiv.o)
    0x08031dcc   0x0000001a   Code   RO         2384    .text               mf_w.l(dfltui.o)
    0x08031de6   0x00000032   Code   RO         2386    .text               mf_w.l(dfixui.o)
    0x08031e18   0x00000026   Code   RO         2388    .text               mf_w.l(f2d.o)
    0x08031e3e   0x00000002   PAD
    0x08031e40   0x00000028   Code   RO         2390    .text               mf_w.l(cdrcmple.o)
    0x08031e68   0x00000038   Code   RO         2392    .text               mf_w.l(d2f.o)
    0x08031ea0   0x00000062   Code   RO         2410    .text               mc_w.l(uldiv.o)
    0x08031f02   0x0000001e   Code   RO         2412    .text               mc_w.l(llshl.o)
    0x08031f20   0x00000020   Code   RO         2414    .text               mc_w.l(llushr.o)
    0x08031f40   0x00000024   Code   RO         2416    .text               mc_w.l(llsshr.o)
    0x08031f64   0x00000000   Code   RO         2418    .text               mc_w.l(iusefp.o)
    0x08031f64   0x0000006e   Code   RO         2419    .text               mf_w.l(fepilogue.o)
    0x08031fd2   0x000000b6   Code   RO         2421    .text               mf_w.l(depilogue.o)
    0x08032088   0x00000024   Code   RO         2425    .text               mc_w.l(init.o)
    0x080320ac   0x00000056   Code   RO         2435    .text               mc_w.l(__dczerorl2.o)
    0x08032102   0x00000002   PAD
    0x08032104   0x00000304   Code   RO         1666    i.AES128_decrypt    M4_CryptoFW_RngHW_2_0_6.lib(crypto.o)
    0x08032408   0x00000314   Code   RO         1667    i.AES128_encrypt    M4_CryptoFW_RngHW_2_0_6.lib(crypto.o)
    0x0803271c   0x00000134   Code   RO         1668    i.AES128_keyschedule_dec  M4_CryptoFW_RngHW_2_0_6.lib(crypto.o)
    0x08032850   0x00000074   Code   RO         1669    i.AES128_keyschedule_enc  M4_CryptoFW_RngHW_2_0_6.lib(crypto.o)
    0x080328c4   0x00000300   Code   RO         1670    i.AES192_decrypt    M4_CryptoFW_RngHW_2_0_6.lib(crypto.o)
    0x08032bc4   0x00000314   Code   RO         1671    i.AES192_encrypt    M4_CryptoFW_RngHW_2_0_6.lib(crypto.o)
    0x08032ed8   0x00000120   Code   RO         1672    i.AES192_keyschedule_dec  M4_CryptoFW_RngHW_2_0_6.lib(crypto.o)
    0x08032ff8   0x00000098   Code   RO         1673    i.AES192_keyschedule_enc  M4_CryptoFW_RngHW_2_0_6.lib(crypto.o)
    0x08033090   0x00000304   Code   RO         1674    i.AES256_decrypt    M4_CryptoFW_RngHW_2_0_6.lib(crypto.o)
    0x08033394   0x00000318   Code   RO         1675    i.AES256_encrypt    M4_CryptoFW_RngHW_2_0_6.lib(crypto.o)
    0x080336ac   0x00000120   Code   RO         1676    i.AES256_keyschedule_dec  M4_CryptoFW_RngHW_2_0_6.lib(crypto.o)
    0x080337cc   0x000000dc   Code   RO         1677    i.AES256_keyschedule_enc  M4_CryptoFW_RngHW_2_0_6.lib(crypto.o)
    0x080338a8   0x000000c4   Code   RO         1703    i.AES_ECB_Decrypt_Append  M4_CryptoFW_RngHW_2_0_6.lib(crypto.o)
    0x0803396c   0x0000001a   Code   RO         1704    i.AES_ECB_Decrypt_Finish  M4_CryptoFW_RngHW_2_0_6.lib(crypto.o)
    0x08033986   0x00000006   Code   RO         1705    i.AES_ECB_Decrypt_Init  M4_CryptoFW_RngHW_2_0_6.lib(crypto.o)
    0x0803398c   0x000000c4   Code   RO         1706    i.AES_ECB_Encrypt_Append  M4_CryptoFW_RngHW_2_0_6.lib(crypto.o)
    0x08033a50   0x0000001a   Code   RO         1707    i.AES_ECB_Encrypt_Finish  M4_CryptoFW_RngHW_2_0_6.lib(crypto.o)
    0x08033a6a   0x00000006   Code   RO         1708    i.AES_ECB_Encrypt_Init  M4_CryptoFW_RngHW_2_0_6.lib(crypto.o)
    0x08033a70   0x000001a4   Code   RO         1724    i.AESstdInit        M4_CryptoFW_RngHW_2_0_6.lib(crypto.o)
    0x08033c14   0x00000008   Code   RO         1739    i.Crypto_DeInit     M4_CryptoFW_RngHW_2_0_6.lib(crypto.o)
    0x08033c1c   0x0000002a   Code   RO         1804    i.MD5_Append        M4_CryptoFW_RngHW_2_0_6.lib(crypto.o)
    0x08033c46   0x00000090   Code   RO         1805    i.MD5_Finish        M4_CryptoFW_RngHW_2_0_6.lib(crypto.o)
    0x08033cd6   0x00000002   PAD
    0x08033cd8   0x0000003c   Code   RO         1806    i.MD5_Init          M4_CryptoFW_RngHW_2_0_6.lib(crypto.o)
    0x08033d14   0x00000020   Code   RO         2184    i.__0printf$2       mc_w.l(printf2.o)
    0x08033d34   0x0000000e   Code   RO         2429    i.__scatterload_copy  mc_w.l(handlers.o)
    0x08033d42   0x00000002   Code   RO         2430    i.__scatterload_null  mc_w.l(handlers.o)
    0x08033d44   0x0000000e   Code   RO         2431    i.__scatterload_zeroinit  mc_w.l(handlers.o)
    0x08033d52   0x000000d6   Code   RO         2191    i._printf_core      mc_w.l(printf2.o)
    0x08033e28   0x000000d8   Code   RO         1876    i.crl_u_MD5_Finish  M4_CryptoFW_RngHW_2_0_6.lib(crypto.o)
    0x08033f00   0x00000096   Code   RO         1878    i.crl_u_MD5_Update  M4_CryptoFW_RngHW_2_0_6.lib(crypto.o)
    0x08033f96   0x00000002   PAD
    0x08033f98   0x00000810   Code   RO         1882    i.md5_process       M4_CryptoFW_RngHW_2_0_6.lib(crypto.o)
    0x080347a8   0x00000200   Data   RO          366    .constdata          task_communicate_protocol.o
    0x080349a8   0x00000018   Data   RO          697    .constdata          bsp_md5.o
    0x080349c0   0x00000017   Data   RO         1082    .constdata          usbd_msc_data.o
    0x080349d7   0x00000001   PAD
    0x080349d8   0x000000ba   Data   RO         1250    .constdata          ff.o
    0x08034a92   0x000004c0   Data   RO         1280    .constdata          unicode.o
    0x08034f52   0x00000002   PAD
    0x08034f54   0x00001798   Data   RO         1883    .constdata          M4_CryptoFW_RngHW_2_0_6.lib(crypto.o)
    0x080366ec   0x00000020   Data   RO         2427    Region$$Table       anon$$obj.o


    Execution Region RW_IRAM1 (Base: 0x20000000, Size: 0x00016a88, Max: 0x00020000, ABSOLUTE, COMPRESSED[0x000004e8])

    Base Addr    Size         Type   Attr      Idx    E Section Name        Object

    0x20000000   0x00000034   Data   RW            4    .data               main.o
    0x20000034   0x000008b9   Data   RW          367    .data               task_communicate_protocol.o
    0x200008ed   0x00000003   PAD
    0x200008f0   0x00000014   Data   RW          403    .data               system_stm32f4xx.o
    0x20000904   0x000000cb   Data   RW          430    .data               task_hardwarecontrol.o
    0x200009cf   0x00000001   PAD
    0x200009d0   0x000002e8   Data   RW          461    .data               bsp_adc.o
    0x20000cb8   0x00000020   Data   RW          487    .data               bsp_aesecb256.o
    0x20000cd8   0x00000460   Data   RW          541    .data               bsp_filesystem.o
    0x20001138   0x00000010   Data   RW          572    .data               bsp_sdio.o
    0x20001148   0x00000848   Data   RW          599    .data               bsp_usart.o
    0x20001990   0x00000001   Data   RW          634    .data               bsp_gpio.o
    0x20001991   0x00000001   Data   RW          668    .data               bsp_rtc.o
    0x20001992   0x00000002   PAD
    0x20001994   0x00000008   Data   RW          698    .data               bsp_md5.o
    0x2000199c   0x00000018   Data   RW          720    .data               heap_2.o
    0x200019b4   0x00000004   Data   RW          781    .data               port.o
    0x200019b8   0x00000038   Data   RW          826    .data               tasks.o
    0x200019f0   0x00000003   Data   RW          850    .data               usb_bsp.o
    0x200019f3   0x00000001   PAD
    0x200019f4   0x00000034   Data   RW          941    .data               usbd_core.o
    0x20001a28   0x0000003c   Data   RW          970    .data               usbd_desc.o
    0x20001a64   0x00000004   Data   RW         1018    .data               usbd_msc_bot.o
    0x20001a68   0x0000004e   Data   RW         1053    .data               usbd_msc_core.o
    0x20001ab6   0x00000002   PAD
    0x20001ab8   0x00000018   Data   RW         1104    .data               usbd_msc_scsi.o
    0x20001ad0   0x0000000d   Data   RW         1136    .data               usbd_req.o
    0x20001add   0x00000003   PAD
    0x20001ae0   0x00000070   Data   RW         1164    .data               usbd_storage.o
    0x20001b50   0x00000020   Data   RW         1194    .data               usbd_usr.o
    0x20001b70   0x0000000a   Data   RW         1251    .data               ff.o
    0x20001b7a   0x00000010   Data   RW         1502    .data               stm32f4xx_rcc.o
    0x20001b8a   0x00000002   PAD
    0x20001b8c   0x00000004   Data   RW         2109    .data               mc_w.l(rand.o)
    0x20001b90   0x00000984   Zero   RW          365    .bss                task_communicate_protocol.o
    0x20002514   0x00000240   Zero   RW          429    .bss                task_hardwarecontrol.o
    0x20002754   0x00001f3a   Zero   RW          539    .bss                bsp_filesystem.o
    0x2000468e   0x00000002   PAD
    0x20004690   0x000002c0   Zero   RW          571    .bss                bsp_sdio.o
    0x20004950   0x00000028   Zero   RW          598    .bss                bsp_usart.o
    0x20004978   0x0000000c   Zero   RW          633    .bss                bsp_gpio.o
    0x20004984   0x00000010   Zero   RW          696    .bss                bsp_md5.o
    0x20004994   0x00010000   Zero   RW          719    .bss                heap_2.o
    0x20014994   0x00000040   Zero   RW          804    .bss                queue.o
    0x200149d4   0x00000190   Zero   RW          825    .bss                tasks.o
    0x20014b64   0x00000a90   Zero   RW          849    .bss                usb_bsp.o
    0x200155f4   0x00001030   Zero   RW         1017    .bss                usbd_msc_bot.o
    0x20016624   0x00000020   Zero   RW         1103    .bss                usbd_msc_scsi.o
    0x20016644   0x00000040   Zero   RW         1135    .bss                usbd_req.o
    0x20016684   0x00000004   PAD
    0x20016688   0x00000400   Zero   RW          658    STACK               startup_stm32f411xe.o


==============================================================================

Image component sizes


      Code (inc. data)   RO Data    RW Data    ZI Data      Debug   Object Name

       984        138          0        744          0       2621   bsp_adc.o
       236          0          0         32          0       2591   bsp_aesecb256.o
        74          0          0          0          0       1230   bsp_delay.o
      1080        106          0       1120       7994       8260   bsp_filesystem.o
      1088         28          0          1         12       4929   bsp_gpio.o
       164         20         24          8         16       2354   bsp_md5.o
       248          6          0          1          0       1242   bsp_rtc.o
      7564        288          0         16        704      25566   bsp_sdio.o
      1320        144          0       2120         40       5919   bsp_usart.o
       304         10          0          0          0       3766   diskio.o
     10918        144        186         10          0      36292   ff.o
       292         20          0         24      65536      14820   heap_2.o
       148          0          0          0          0       2026   list.o
       404         80          0         52          0     391652   main.o
       224         20          0          0          0       1921   misc.o
       450         38          0          4          0       4903   port.o
      1456          6          0          0         64      12091   queue.o
        36          8        408          0       1024        868   startup_stm32f411xe.o
      1124         24          0          0          0      10594   stm32f4xx_adc.o
       936         32          0          0          0       6393   stm32f4xx_dma.o
       272         10          0          0          0       2367   stm32f4xx_exti.o
      1684         28          0          0          0       9254   stm32f4xx_flash.o
       660         44          0          0          0       4193   stm32f4xx_gpio.o
        36          6          0          0          0       3505   stm32f4xx_it.o
        64          6          0          0          0       1369   stm32f4xx_iwdg.o
       364         12          0          0          0       3779   stm32f4xx_pwr.o
      1532         54          0         16          0      12453   stm32f4xx_rcc.o
      3432         44          0          0          0      15152   stm32f4xx_rtc.o
       476         16          0          0          0       7488   stm32f4xx_sdio.o
       148         12          0          0          0       1889   stm32f4xx_syscfg.o
      3234         60          0          0          0      22396   stm32f4xx_tim.o
      1108         34          0          0          0       7896   stm32f4xx_usart.o
       500         44          0         20          0       1855   system_stm32f4xx.o
      5832        616        512       2233       2436       8802   task_communicate_protocol.o
      4864        642          0        203        576      35734   task_hardwarecontrol.o
      2984        200          0         56        400      13972   tasks.o
       128         12       1216          0          0       1633   unicode.o
       216          6          0          3       2704      29940   usb_bsp.o
      6022         10          0          0          0      16894   usb_core.o
       894          0          0          0          0       4420   usb_dcd.o
      1904         22          0          0          0       4943   usb_dcd_int.o
       760          6          0         52          0       5326   usbd_core.o
       316        140          0         60          0       3616   usbd_desc.o
       244          0          0          0          0       2666   usbd_ioreq.o
       660         36          0          4       4144       4517   usbd_msc_bot.o
       420         18          0         78          0       2883   usbd_msc_core.o
         0          0         23          0          0        773   usbd_msc_data.o
      1872        104          0         24         32       8515   usbd_msc_scsi.o
      1728         50          0         13         64       5401   usbd_req.o
       256          8          0        112          0       3973   usbd_storage.o
        84         16          0         32          0       1810   usbd_usr.o

    ----------------------------------------------------------------------
     71752       3368       2404       7052      85752     789452   Object Totals
         0          0         32          0          0          0   (incl. Generated)
         8          0          3         14          6          0   (incl. Padding)

    ----------------------------------------------------------------------

      Code (inc. data)   RO Data    RW Data    ZI Data      Debug   Library Member Name

      9612        394       6040          0          0       3548   crypto.o
        86          0          0          0          0          0   __dczerorl2.o
         0          0          0          0          0          0   entry.o
         0          0          0          0          0          0   entry10a.o
         0          0          0          0          0          0   entry11a.o
         8          4          0          0          0          0   entry2.o
         4          0          0          0          0          0   entry5.o
         0          0          0          0          0          0   entry7b.o
         0          0          0          0          0          0   entry8b.o
         8          4          0          0          0          0   entry9a.o
        30          0          0          0          0          0   handlers.o
        36          8          0          0          0         68   init.o
         0          0          0          0          0          0   iusefp.o
        90          0          0          0          0         84   ldiv.o
        30          0          0          0          0         68   llshl.o
        36          0          0          0          0         68   llsshr.o
        32          0          0          0          0         68   llushr.o
        36          0          0          0          0         68   memcpya.o
        36          0          0          0          0        108   memseta.o
       246         10          0          0          0        176   printf2.o
        36         10          0          4          0        136   rand.o
        98          0          0          0          0         92   uldiv.o
        40          2          0          0          0         68   cdrcmple.o
        56          0          0          0          0         88   d2f.o
       334          0          0          0          0        148   dadd.o
       222          0          0          0          0        100   ddiv.o
       182          0          0          0          0        176   depilogue.o
        50          0          0          0          0         76   dfixui.o
        26          0          0          0          0         76   dfltui.o
       228          0          0          0          0         96   dmul.o
        38          0          0          0          0         68   f2d.o
       110          0          0          0          0        168   fepilogue.o

    ----------------------------------------------------------------------
     11720        432       6040          4          0       5548   Library Totals
        10          0          0          0          0          0   (incl. Padding)

    ----------------------------------------------------------------------

      Code (inc. data)   RO Data    RW Data    ZI Data      Debug   Library Name

      9612        394       6040          0          0       3548   M4_CryptoFW_RngHW_2_0_6.lib
       812         36          0          4          0        936   mc_w.l
      1286          2          0          0          0       1064   mf_w.l

    ----------------------------------------------------------------------
     11720        432       6040          4          0       5548   Library Totals

    ----------------------------------------------------------------------

==============================================================================


      Code (inc. data)   RO Data    RW Data    ZI Data      Debug   

     83472       3800       8444       7056      85752     778596   Grand Totals
     83472       3800       8444       1256      85752     778596   ELF Image Totals (compressed)
     83472       3800       8444       1256          0          0   ROM Totals

==============================================================================

    Total RO  Size (Code + RO Data)                91916 (  89.76kB)
    Total RW  Size (RW Data + ZI Data)             92808 (  90.63kB)
    Total ROM Size (Code + RO Data + RW Data)      93172 (  90.99kB)

==============================================================================

